
XmegaBoard1.elf:     file format elf32-avr

Sections:
Idx Name          Size      VMA       LMA       File off  Algn
  0 .text         00001078  00000000  00000000  00000094  2**1
                  CONTENTS, ALLOC, LOAD, READONLY, CODE
  1 .data         00000014  00802000  00001078  0000110c  2**0
                  CONTENTS, ALLOC, LOAD, DATA
  2 .bss          00000138  00802014  00802014  00001120  2**0
                  ALLOC
  3 .comment      00000030  00000000  00000000  00001120  2**0
                  CONTENTS, READONLY
  4 .note.gnu.avr.deviceinfo 00000040  00000000  00000000  00001150  2**2
                  CONTENTS, READONLY
  5 .debug_aranges 00000020  00000000  00000000  00001190  2**3
                  CONTENTS, READONLY, DEBUGGING
  6 .debug_info   00003ef0  00000000  00000000  000011b0  2**0
                  CONTENTS, READONLY, DEBUGGING
  7 .debug_abbrev 00003b22  00000000  00000000  000050a0  2**0
                  CONTENTS, READONLY, DEBUGGING
  8 .debug_line   00000423  00000000  00000000  00008bc2  2**0
                  CONTENTS, READONLY, DEBUGGING
  9 .debug_str    00002969  00000000  00000000  00008fe5  2**0
                  CONTENTS, READONLY, DEBUGGING

Disassembly of section .text:

00000000 <__vectors>:
       0:	fd c0       	rjmp	.+506    	; 0x1fc <__ctors_end>
       2:	00 00       	nop
       4:	1f c1       	rjmp	.+574    	; 0x244 <__bad_interrupt>
       6:	00 00       	nop
       8:	1d c1       	rjmp	.+570    	; 0x244 <__bad_interrupt>
       a:	00 00       	nop
       c:	1b c1       	rjmp	.+566    	; 0x244 <__bad_interrupt>
       e:	00 00       	nop
      10:	19 c1       	rjmp	.+562    	; 0x244 <__bad_interrupt>
      12:	00 00       	nop
      14:	17 c1       	rjmp	.+558    	; 0x244 <__bad_interrupt>
      16:	00 00       	nop
      18:	15 c1       	rjmp	.+554    	; 0x244 <__bad_interrupt>
      1a:	00 00       	nop
      1c:	13 c1       	rjmp	.+550    	; 0x244 <__bad_interrupt>
      1e:	00 00       	nop
      20:	11 c1       	rjmp	.+546    	; 0x244 <__bad_interrupt>
      22:	00 00       	nop
      24:	0f c1       	rjmp	.+542    	; 0x244 <__bad_interrupt>
      26:	00 00       	nop
      28:	55 c4       	rjmp	.+2218   	; 0x8d4 <__vector_10>
      2a:	00 00       	nop
      2c:	76 c4       	rjmp	.+2284   	; 0x91a <__vector_11>
      2e:	00 00       	nop
      30:	09 c1       	rjmp	.+530    	; 0x244 <__bad_interrupt>
      32:	00 00       	nop
      34:	62 c2       	rjmp	.+1220   	; 0x4fa <__vector_13>
      36:	00 00       	nop
      38:	05 c1       	rjmp	.+522    	; 0x244 <__bad_interrupt>
      3a:	00 00       	nop
      3c:	03 c1       	rjmp	.+518    	; 0x244 <__bad_interrupt>
      3e:	00 00       	nop
      40:	01 c1       	rjmp	.+514    	; 0x244 <__bad_interrupt>
      42:	00 00       	nop
      44:	ff c0       	rjmp	.+510    	; 0x244 <__bad_interrupt>
      46:	00 00       	nop
      48:	fd c0       	rjmp	.+506    	; 0x244 <__bad_interrupt>
      4a:	00 00       	nop
      4c:	fb c0       	rjmp	.+502    	; 0x244 <__bad_interrupt>
      4e:	00 00       	nop
      50:	f9 c0       	rjmp	.+498    	; 0x244 <__bad_interrupt>
      52:	00 00       	nop
      54:	f7 c0       	rjmp	.+494    	; 0x244 <__bad_interrupt>
      56:	00 00       	nop
      58:	f5 c0       	rjmp	.+490    	; 0x244 <__bad_interrupt>
      5a:	00 00       	nop
      5c:	f3 c0       	rjmp	.+486    	; 0x244 <__bad_interrupt>
      5e:	00 00       	nop
      60:	12 c5       	rjmp	.+2596   	; 0xa86 <__vector_24>
      62:	00 00       	nop
      64:	ef c0       	rjmp	.+478    	; 0x244 <__bad_interrupt>
      66:	00 00       	nop
      68:	ed c0       	rjmp	.+474    	; 0x244 <__bad_interrupt>
      6a:	00 00       	nop
      6c:	eb c0       	rjmp	.+470    	; 0x244 <__bad_interrupt>
      6e:	00 00       	nop
      70:	e9 c0       	rjmp	.+466    	; 0x244 <__bad_interrupt>
      72:	00 00       	nop
      74:	e7 c0       	rjmp	.+462    	; 0x244 <__bad_interrupt>
      76:	00 00       	nop
      78:	e5 c0       	rjmp	.+458    	; 0x244 <__bad_interrupt>
      7a:	00 00       	nop
      7c:	e3 c0       	rjmp	.+454    	; 0x244 <__bad_interrupt>
      7e:	00 00       	nop
      80:	e1 c0       	rjmp	.+450    	; 0x244 <__bad_interrupt>
      82:	00 00       	nop
      84:	df c0       	rjmp	.+446    	; 0x244 <__bad_interrupt>
      86:	00 00       	nop
      88:	dd c0       	rjmp	.+442    	; 0x244 <__bad_interrupt>
      8a:	00 00       	nop
      8c:	db c0       	rjmp	.+438    	; 0x244 <__bad_interrupt>
      8e:	00 00       	nop
      90:	d9 c0       	rjmp	.+434    	; 0x244 <__bad_interrupt>
      92:	00 00       	nop
      94:	d7 c0       	rjmp	.+430    	; 0x244 <__bad_interrupt>
      96:	00 00       	nop
      98:	d5 c0       	rjmp	.+426    	; 0x244 <__bad_interrupt>
      9a:	00 00       	nop
      9c:	d3 c0       	rjmp	.+422    	; 0x244 <__bad_interrupt>
      9e:	00 00       	nop
      a0:	d1 c0       	rjmp	.+418    	; 0x244 <__bad_interrupt>
      a2:	00 00       	nop
      a4:	cf c0       	rjmp	.+414    	; 0x244 <__bad_interrupt>
      a6:	00 00       	nop
      a8:	cd c0       	rjmp	.+410    	; 0x244 <__bad_interrupt>
      aa:	00 00       	nop
      ac:	cb c0       	rjmp	.+406    	; 0x244 <__bad_interrupt>
      ae:	00 00       	nop
      b0:	c9 c0       	rjmp	.+402    	; 0x244 <__bad_interrupt>
      b2:	00 00       	nop
      b4:	c7 c0       	rjmp	.+398    	; 0x244 <__bad_interrupt>
      b6:	00 00       	nop
      b8:	84 c2       	rjmp	.+1288   	; 0x5c2 <__vector_46>
      ba:	00 00       	nop
      bc:	c3 c0       	rjmp	.+390    	; 0x244 <__bad_interrupt>
      be:	00 00       	nop
      c0:	c1 c0       	rjmp	.+386    	; 0x244 <__bad_interrupt>
      c2:	00 00       	nop
      c4:	bf c0       	rjmp	.+382    	; 0x244 <__bad_interrupt>
      c6:	00 00       	nop
      c8:	bd c0       	rjmp	.+378    	; 0x244 <__bad_interrupt>
      ca:	00 00       	nop
      cc:	bb c0       	rjmp	.+374    	; 0x244 <__bad_interrupt>
      ce:	00 00       	nop
      d0:	b9 c0       	rjmp	.+370    	; 0x244 <__bad_interrupt>
      d2:	00 00       	nop
      d4:	b7 c0       	rjmp	.+366    	; 0x244 <__bad_interrupt>
      d6:	00 00       	nop
      d8:	b5 c0       	rjmp	.+362    	; 0x244 <__bad_interrupt>
      da:	00 00       	nop
      dc:	b3 c0       	rjmp	.+358    	; 0x244 <__bad_interrupt>
      de:	00 00       	nop
      e0:	b1 c0       	rjmp	.+354    	; 0x244 <__bad_interrupt>
      e2:	00 00       	nop
      e4:	af c0       	rjmp	.+350    	; 0x244 <__bad_interrupt>
      e6:	00 00       	nop
      e8:	ad c0       	rjmp	.+346    	; 0x244 <__bad_interrupt>
      ea:	00 00       	nop
      ec:	ab c0       	rjmp	.+342    	; 0x244 <__bad_interrupt>
      ee:	00 00       	nop
      f0:	a9 c0       	rjmp	.+338    	; 0x244 <__bad_interrupt>
      f2:	00 00       	nop
      f4:	a7 c0       	rjmp	.+334    	; 0x244 <__bad_interrupt>
      f6:	00 00       	nop
      f8:	a5 c0       	rjmp	.+330    	; 0x244 <__bad_interrupt>
      fa:	00 00       	nop
      fc:	a3 c0       	rjmp	.+326    	; 0x244 <__bad_interrupt>
      fe:	00 00       	nop
     100:	a1 c0       	rjmp	.+322    	; 0x244 <__bad_interrupt>
     102:	00 00       	nop
     104:	9f c0       	rjmp	.+318    	; 0x244 <__bad_interrupt>
     106:	00 00       	nop
     108:	9d c0       	rjmp	.+314    	; 0x244 <__bad_interrupt>
     10a:	00 00       	nop
     10c:	9b c0       	rjmp	.+310    	; 0x244 <__bad_interrupt>
     10e:	00 00       	nop
     110:	99 c0       	rjmp	.+306    	; 0x244 <__bad_interrupt>
     112:	00 00       	nop
     114:	97 c0       	rjmp	.+302    	; 0x244 <__bad_interrupt>
     116:	00 00       	nop
     118:	95 c0       	rjmp	.+298    	; 0x244 <__bad_interrupt>
     11a:	00 00       	nop
     11c:	93 c0       	rjmp	.+294    	; 0x244 <__bad_interrupt>
     11e:	00 00       	nop
     120:	91 c0       	rjmp	.+290    	; 0x244 <__bad_interrupt>
     122:	00 00       	nop
     124:	8f c0       	rjmp	.+286    	; 0x244 <__bad_interrupt>
     126:	00 00       	nop
     128:	8d c0       	rjmp	.+282    	; 0x244 <__bad_interrupt>
     12a:	00 00       	nop
     12c:	8b c0       	rjmp	.+278    	; 0x244 <__bad_interrupt>
     12e:	00 00       	nop
     130:	16 c2       	rjmp	.+1068   	; 0x55e <__vector_76>
     132:	00 00       	nop
     134:	87 c0       	rjmp	.+270    	; 0x244 <__bad_interrupt>
     136:	00 00       	nop
     138:	85 c0       	rjmp	.+266    	; 0x244 <__bad_interrupt>
     13a:	00 00       	nop
     13c:	83 c0       	rjmp	.+262    	; 0x244 <__bad_interrupt>
     13e:	00 00       	nop
     140:	81 c0       	rjmp	.+258    	; 0x244 <__bad_interrupt>
     142:	00 00       	nop
     144:	7f c0       	rjmp	.+254    	; 0x244 <__bad_interrupt>
     146:	00 00       	nop
     148:	7d c0       	rjmp	.+250    	; 0x244 <__bad_interrupt>
     14a:	00 00       	nop
     14c:	7b c0       	rjmp	.+246    	; 0x244 <__bad_interrupt>
     14e:	00 00       	nop
     150:	79 c0       	rjmp	.+242    	; 0x244 <__bad_interrupt>
     152:	00 00       	nop
     154:	77 c0       	rjmp	.+238    	; 0x244 <__bad_interrupt>
     156:	00 00       	nop
     158:	75 c0       	rjmp	.+234    	; 0x244 <__bad_interrupt>
     15a:	00 00       	nop
     15c:	73 c0       	rjmp	.+230    	; 0x244 <__bad_interrupt>
     15e:	00 00       	nop
     160:	71 c0       	rjmp	.+226    	; 0x244 <__bad_interrupt>
     162:	00 00       	nop
     164:	6f c0       	rjmp	.+222    	; 0x244 <__bad_interrupt>
     166:	00 00       	nop
     168:	6d c0       	rjmp	.+218    	; 0x244 <__bad_interrupt>
     16a:	00 00       	nop
     16c:	6b c0       	rjmp	.+214    	; 0x244 <__bad_interrupt>
     16e:	00 00       	nop
     170:	69 c0       	rjmp	.+210    	; 0x244 <__bad_interrupt>
     172:	00 00       	nop
     174:	67 c0       	rjmp	.+206    	; 0x244 <__bad_interrupt>
     176:	00 00       	nop
     178:	65 c0       	rjmp	.+202    	; 0x244 <__bad_interrupt>
     17a:	00 00       	nop
     17c:	63 c0       	rjmp	.+198    	; 0x244 <__bad_interrupt>
     17e:	00 00       	nop
     180:	61 c0       	rjmp	.+194    	; 0x244 <__bad_interrupt>
     182:	00 00       	nop
     184:	5f c0       	rjmp	.+190    	; 0x244 <__bad_interrupt>
     186:	00 00       	nop
     188:	5d c0       	rjmp	.+186    	; 0x244 <__bad_interrupt>
     18a:	00 00       	nop
     18c:	5b c0       	rjmp	.+182    	; 0x244 <__bad_interrupt>
     18e:	00 00       	nop
     190:	59 c0       	rjmp	.+178    	; 0x244 <__bad_interrupt>
     192:	00 00       	nop
     194:	57 c0       	rjmp	.+174    	; 0x244 <__bad_interrupt>
     196:	00 00       	nop
     198:	55 c0       	rjmp	.+170    	; 0x244 <__bad_interrupt>
     19a:	00 00       	nop
     19c:	53 c0       	rjmp	.+166    	; 0x244 <__bad_interrupt>
     19e:	00 00       	nop
     1a0:	51 c0       	rjmp	.+162    	; 0x244 <__bad_interrupt>
     1a2:	00 00       	nop
     1a4:	4f c0       	rjmp	.+158    	; 0x244 <__bad_interrupt>
     1a6:	00 00       	nop
     1a8:	4d c0       	rjmp	.+154    	; 0x244 <__bad_interrupt>
     1aa:	00 00       	nop
     1ac:	3c c2       	rjmp	.+1144   	; 0x626 <__vector_107>
     1ae:	00 00       	nop
     1b0:	49 c0       	rjmp	.+146    	; 0x244 <__bad_interrupt>
     1b2:	00 00       	nop
     1b4:	47 c0       	rjmp	.+142    	; 0x244 <__bad_interrupt>
     1b6:	00 00       	nop
     1b8:	45 c0       	rjmp	.+138    	; 0x244 <__bad_interrupt>
     1ba:	00 00       	nop
     1bc:	43 c0       	rjmp	.+134    	; 0x244 <__bad_interrupt>
     1be:	00 00       	nop
     1c0:	41 c0       	rjmp	.+130    	; 0x244 <__bad_interrupt>
     1c2:	00 00       	nop
     1c4:	3f c0       	rjmp	.+126    	; 0x244 <__bad_interrupt>
     1c6:	00 00       	nop
     1c8:	3d c0       	rjmp	.+122    	; 0x244 <__bad_interrupt>
     1ca:	00 00       	nop
     1cc:	3b c0       	rjmp	.+118    	; 0x244 <__bad_interrupt>
     1ce:	00 00       	nop
     1d0:	39 c0       	rjmp	.+114    	; 0x244 <__bad_interrupt>
     1d2:	00 00       	nop
     1d4:	37 c0       	rjmp	.+110    	; 0x244 <__bad_interrupt>
     1d6:	00 00       	nop
     1d8:	35 c0       	rjmp	.+106    	; 0x244 <__bad_interrupt>
     1da:	00 00       	nop
     1dc:	33 c0       	rjmp	.+102    	; 0x244 <__bad_interrupt>
     1de:	00 00       	nop
     1e0:	31 c0       	rjmp	.+98     	; 0x244 <__bad_interrupt>
     1e2:	00 00       	nop
     1e4:	2f c0       	rjmp	.+94     	; 0x244 <__bad_interrupt>
     1e6:	00 00       	nop
     1e8:	2d c0       	rjmp	.+90     	; 0x244 <__bad_interrupt>
     1ea:	00 00       	nop
     1ec:	2b c0       	rjmp	.+86     	; 0x244 <__bad_interrupt>
     1ee:	00 00       	nop
     1f0:	29 c0       	rjmp	.+82     	; 0x244 <__bad_interrupt>
     1f2:	00 00       	nop
     1f4:	27 c0       	rjmp	.+78     	; 0x244 <__bad_interrupt>
     1f6:	00 00       	nop
     1f8:	25 c0       	rjmp	.+74     	; 0x244 <__bad_interrupt>
	...

000001fc <__ctors_end>:
     1fc:	11 24       	eor	r1, r1
     1fe:	1f be       	out	0x3f, r1	; 63
     200:	cf ef       	ldi	r28, 0xFF	; 255
     202:	cd bf       	out	0x3d, r28	; 61
     204:	df e3       	ldi	r29, 0x3F	; 63
     206:	de bf       	out	0x3e, r29	; 62
     208:	00 e0       	ldi	r16, 0x00	; 0
     20a:	0c bf       	out	0x3c, r16	; 60
     20c:	18 be       	out	0x38, r1	; 56
     20e:	19 be       	out	0x39, r1	; 57
     210:	1a be       	out	0x3a, r1	; 58
     212:	1b be       	out	0x3b, r1	; 59

00000214 <__do_copy_data>:
     214:	10 e2       	ldi	r17, 0x20	; 32
     216:	a0 e0       	ldi	r26, 0x00	; 0
     218:	b0 e2       	ldi	r27, 0x20	; 32
     21a:	e8 e7       	ldi	r30, 0x78	; 120
     21c:	f0 e1       	ldi	r31, 0x10	; 16
     21e:	00 e0       	ldi	r16, 0x00	; 0
     220:	0b bf       	out	0x3b, r16	; 59
     222:	02 c0       	rjmp	.+4      	; 0x228 <__do_copy_data+0x14>
     224:	07 90       	elpm	r0, Z+
     226:	0d 92       	st	X+, r0
     228:	a4 31       	cpi	r26, 0x14	; 20
     22a:	b1 07       	cpc	r27, r17
     22c:	d9 f7       	brne	.-10     	; 0x224 <__do_copy_data+0x10>
     22e:	1b be       	out	0x3b, r1	; 59

00000230 <__do_clear_bss>:
     230:	21 e2       	ldi	r18, 0x21	; 33
     232:	a4 e1       	ldi	r26, 0x14	; 20
     234:	b0 e2       	ldi	r27, 0x20	; 32
     236:	01 c0       	rjmp	.+2      	; 0x23a <.do_clear_bss_start>

00000238 <.do_clear_bss_loop>:
     238:	1d 92       	st	X+, r1

0000023a <.do_clear_bss_start>:
     23a:	ac 34       	cpi	r26, 0x4C	; 76
     23c:	b2 07       	cpc	r27, r18
     23e:	e1 f7       	brne	.-8      	; 0x238 <.do_clear_bss_loop>
     240:	5b d6       	rcall	.+3254   	; 0xef8 <main>
     242:	18 c7       	rjmp	.+3632   	; 0x1074 <_exit>

00000244 <__bad_interrupt>:
     244:	dd ce       	rjmp	.-582    	; 0x0 <__vectors>

00000246 <crc_reset>:
     246:	e0 ed       	ldi	r30, 0xD0	; 208
     248:	f0 e0       	ldi	r31, 0x00	; 0
     24a:	80 81       	ld	r24, Z
     24c:	80 68       	ori	r24, 0x80	; 128
     24e:	80 83       	st	Z, r24
     250:	80 91 14 20 	lds	r24, 0x2014	; 0x802014 <__data_end>
     254:	90 91 15 20 	lds	r25, 0x2015	; 0x802015 <__data_end+0x1>
     258:	a0 91 16 20 	lds	r26, 0x2016	; 0x802016 <__data_end+0x2>
     25c:	b0 91 17 20 	lds	r27, 0x2017	; 0x802017 <__data_end+0x3>
     260:	84 83       	std	Z+4, r24	; 0x04
     262:	49 2f       	mov	r20, r25
     264:	5a 2f       	mov	r21, r26
     266:	6b 2f       	mov	r22, r27
     268:	77 27       	eor	r23, r23
     26a:	45 83       	std	Z+5, r20	; 0x05
     26c:	ad 01       	movw	r20, r26
     26e:	66 27       	eor	r22, r22
     270:	77 27       	eor	r23, r23
     272:	46 83       	std	Z+6, r20	; 0x06
     274:	8b 2f       	mov	r24, r27
     276:	99 27       	eor	r25, r25
     278:	aa 27       	eor	r26, r26
     27a:	bb 27       	eor	r27, r27
     27c:	87 83       	std	Z+7, r24	; 0x07
     27e:	10 92 14 20 	sts	0x2014, r1	; 0x802014 <__data_end>
     282:	10 92 15 20 	sts	0x2015, r1	; 0x802015 <__data_end+0x1>
     286:	10 92 16 20 	sts	0x2016, r1	; 0x802016 <__data_end+0x2>
     28a:	10 92 17 20 	sts	0x2017, r1	; 0x802017 <__data_end+0x3>
     28e:	08 95       	ret

00000290 <crc_checksum_read>:
     290:	cf 92       	push	r12
     292:	df 92       	push	r13
     294:	ef 92       	push	r14
     296:	ff 92       	push	r15
     298:	0f 93       	push	r16
     29a:	1f 93       	push	r17
     29c:	80 91 d1 00 	lds	r24, 0x00D1	; 0x8000d1 <__TEXT_REGION_LENGTH__+0x7000d1>
     2a0:	80 fd       	sbrc	r24, 0
     2a2:	fc cf       	rjmp	.-8      	; 0x29c <crc_checksum_read+0xc>
     2a4:	80 91 d0 00 	lds	r24, 0x00D0	; 0x8000d0 <__TEXT_REGION_LENGTH__+0x7000d0>
     2a8:	85 ff       	sbrs	r24, 5
     2aa:	32 c0       	rjmp	.+100    	; 0x310 <crc_checksum_read+0x80>
     2ac:	90 91 d4 00 	lds	r25, 0x00D4	; 0x8000d4 <__TEXT_REGION_LENGTH__+0x7000d4>
     2b0:	40 91 d5 00 	lds	r20, 0x00D5	; 0x8000d5 <__TEXT_REGION_LENGTH__+0x7000d5>
     2b4:	80 91 d6 00 	lds	r24, 0x00D6	; 0x8000d6 <__TEXT_REGION_LENGTH__+0x7000d6>
     2b8:	00 91 d7 00 	lds	r16, 0x00D7	; 0x8000d7 <__TEXT_REGION_LENGTH__+0x7000d7>
     2bc:	10 e0       	ldi	r17, 0x00	; 0
     2be:	20 e0       	ldi	r18, 0x00	; 0
     2c0:	30 e0       	ldi	r19, 0x00	; 0
     2c2:	30 2f       	mov	r19, r16
     2c4:	22 27       	eor	r18, r18
     2c6:	11 27       	eor	r17, r17
     2c8:	00 27       	eor	r16, r16
     2ca:	14 2b       	or	r17, r20
     2cc:	09 2b       	or	r16, r25
     2ce:	28 2b       	or	r18, r24
     2d0:	40 e2       	ldi	r20, 0x20	; 32
     2d2:	80 e0       	ldi	r24, 0x00	; 0
     2d4:	90 e0       	ldi	r25, 0x00	; 0
     2d6:	dc 01       	movw	r26, r24
     2d8:	88 0f       	add	r24, r24
     2da:	99 1f       	adc	r25, r25
     2dc:	aa 1f       	adc	r26, r26
     2de:	bb 1f       	adc	r27, r27
     2e0:	68 01       	movw	r12, r16
     2e2:	79 01       	movw	r14, r18
     2e4:	51 e0       	ldi	r21, 0x01	; 1
     2e6:	c5 22       	and	r12, r21
     2e8:	dd 24       	eor	r13, r13
     2ea:	ee 24       	eor	r14, r14
     2ec:	ff 24       	eor	r15, r15
     2ee:	8c 0d       	add	r24, r12
     2f0:	9d 1d       	adc	r25, r13
     2f2:	ae 1d       	adc	r26, r14
     2f4:	bf 1d       	adc	r27, r15
     2f6:	36 95       	lsr	r19
     2f8:	27 95       	ror	r18
     2fa:	17 95       	ror	r17
     2fc:	07 95       	ror	r16
     2fe:	41 50       	subi	r20, 0x01	; 1
     300:	59 f7       	brne	.-42     	; 0x2d8 <crc_checksum_read+0x48>
     302:	bc 01       	movw	r22, r24
     304:	cd 01       	movw	r24, r26
     306:	60 95       	com	r22
     308:	70 95       	com	r23
     30a:	80 95       	com	r24
     30c:	90 95       	com	r25
     30e:	08 c0       	rjmp	.+16     	; 0x320 <crc_checksum_read+0x90>
     310:	60 91 d4 00 	lds	r22, 0x00D4	; 0x8000d4 <__TEXT_REGION_LENGTH__+0x7000d4>
     314:	80 91 d5 00 	lds	r24, 0x00D5	; 0x8000d5 <__TEXT_REGION_LENGTH__+0x7000d5>
     318:	70 e0       	ldi	r23, 0x00	; 0
     31a:	78 2b       	or	r23, r24
     31c:	80 e0       	ldi	r24, 0x00	; 0
     31e:	90 e0       	ldi	r25, 0x00	; 0
     320:	1f 91       	pop	r17
     322:	0f 91       	pop	r16
     324:	ff 90       	pop	r15
     326:	ef 90       	pop	r14
     328:	df 90       	pop	r13
     32a:	cf 90       	pop	r12
     32c:	08 95       	ret

0000032e <crc_set_source>:
     32e:	e0 ed       	ldi	r30, 0xD0	; 208
     330:	f0 e0       	ldi	r31, 0x00	; 0
     332:	90 81       	ld	r25, Z
     334:	90 7f       	andi	r25, 0xF0	; 240
     336:	90 83       	st	Z, r25
     338:	90 81       	ld	r25, Z
     33a:	89 2b       	or	r24, r25
     33c:	80 83       	st	Z, r24
     33e:	08 95       	ret

00000340 <crc_io_checksum_byte_start>:
     340:	cf 93       	push	r28
     342:	df 93       	push	r29
     344:	1f 92       	push	r1
     346:	cd b7       	in	r28, 0x3d	; 61
     348:	de b7       	in	r29, 0x3e	; 62
     34a:	89 83       	std	Y+1, r24	; 0x01
     34c:	7c df       	rcall	.-264    	; 0x246 <crc_reset>
     34e:	89 81       	ldd	r24, Y+1	; 0x01
     350:	81 30       	cpi	r24, 0x01	; 1
     352:	29 f4       	brne	.+10     	; 0x35e <crc_io_checksum_byte_start+0x1e>
     354:	80 91 d0 00 	lds	r24, 0x00D0	; 0x8000d0 <__TEXT_REGION_LENGTH__+0x7000d0>
     358:	80 62       	ori	r24, 0x20	; 32
     35a:	80 93 d0 00 	sts	0x00D0, r24	; 0x8000d0 <__TEXT_REGION_LENGTH__+0x7000d0>
     35e:	81 e0       	ldi	r24, 0x01	; 1
     360:	0f 90       	pop	r0
     362:	df 91       	pop	r29
     364:	cf 91       	pop	r28
     366:	e3 cf       	rjmp	.-58     	; 0x32e <crc_set_source>

00000368 <crc_io_checksum_byte_stop>:
     368:	cf 92       	push	r12
     36a:	df 92       	push	r13
     36c:	ef 92       	push	r14
     36e:	ff 92       	push	r15
     370:	e1 ed       	ldi	r30, 0xD1	; 209
     372:	f0 e0       	ldi	r31, 0x00	; 0
     374:	80 81       	ld	r24, Z
     376:	81 60       	ori	r24, 0x01	; 1
     378:	80 83       	st	Z, r24
     37a:	8a df       	rcall	.-236    	; 0x290 <crc_checksum_read>
     37c:	6b 01       	movw	r12, r22
     37e:	7c 01       	movw	r14, r24
     380:	80 e0       	ldi	r24, 0x00	; 0
     382:	d5 df       	rcall	.-86     	; 0x32e <crc_set_source>
     384:	c7 01       	movw	r24, r14
     386:	b6 01       	movw	r22, r12
     388:	ff 90       	pop	r15
     38a:	ef 90       	pop	r14
     38c:	df 90       	pop	r13
     38e:	cf 90       	pop	r12
     390:	08 95       	ret

00000392 <crc_io_checksum>:
     392:	ef 92       	push	r14
     394:	ff 92       	push	r15
     396:	1f 93       	push	r17
     398:	cf 93       	push	r28
     39a:	df 93       	push	r29
     39c:	1f 92       	push	r1
     39e:	cd b7       	in	r28, 0x3d	; 61
     3a0:	de b7       	in	r29, 0x3e	; 62
     3a2:	18 2f       	mov	r17, r24
     3a4:	7b 01       	movw	r14, r22
     3a6:	84 2f       	mov	r24, r20
     3a8:	99 83       	std	Y+1, r25	; 0x01
     3aa:	ca df       	rcall	.-108    	; 0x340 <crc_io_checksum_byte_start>
     3ac:	e1 2f       	mov	r30, r17
     3ae:	99 81       	ldd	r25, Y+1	; 0x01
     3b0:	f9 2f       	mov	r31, r25
     3b2:	97 01       	movw	r18, r14
     3b4:	2e 0f       	add	r18, r30
     3b6:	3f 1f       	adc	r19, r31
     3b8:	e2 17       	cp	r30, r18
     3ba:	f3 07       	cpc	r31, r19
     3bc:	21 f0       	breq	.+8      	; 0x3c6 <crc_io_checksum+0x34>
     3be:	81 91       	ld	r24, Z+
     3c0:	80 93 d3 00 	sts	0x00D3, r24	; 0x8000d3 <__TEXT_REGION_LENGTH__+0x7000d3>
     3c4:	f9 cf       	rjmp	.-14     	; 0x3b8 <crc_io_checksum+0x26>
     3c6:	0f 90       	pop	r0
     3c8:	df 91       	pop	r29
     3ca:	cf 91       	pop	r28
     3cc:	1f 91       	pop	r17
     3ce:	ff 90       	pop	r15
     3d0:	ef 90       	pop	r14
     3d2:	ca cf       	rjmp	.-108    	; 0x368 <crc_io_checksum_byte_stop>

000003d4 <twim_interrupt_handler>:
     3d4:	cf 93       	push	r28
     3d6:	df 93       	push	r29
     3d8:	e0 91 18 20 	lds	r30, 0x2018	; 0x802018 <transfer>
     3dc:	f0 91 19 20 	lds	r31, 0x2019	; 0x802019 <transfer+0x1>
     3e0:	84 81       	ldd	r24, Z+4	; 0x04
     3e2:	83 ff       	sbrs	r24, 3
     3e4:	06 c0       	rjmp	.+12     	; 0x3f2 <twim_interrupt_handler+0x1e>
     3e6:	88 60       	ori	r24, 0x08	; 8
     3e8:	84 83       	std	Z+4, r24	; 0x04
     3ea:	83 e0       	ldi	r24, 0x03	; 3
     3ec:	83 83       	std	Z+3, r24	; 0x03
     3ee:	86 ef       	ldi	r24, 0xF6	; 246
     3f0:	7f c0       	rjmp	.+254    	; 0x4f0 <__LOCK_REGION_LENGTH__+0xf0>
     3f2:	98 2f       	mov	r25, r24
     3f4:	94 71       	andi	r25, 0x14	; 20
     3f6:	21 f0       	breq	.+8      	; 0x400 <__LOCK_REGION_LENGTH__>
     3f8:	83 e0       	ldi	r24, 0x03	; 3
     3fa:	83 83       	std	Z+3, r24	; 0x03
     3fc:	8f ef       	ldi	r24, 0xFF	; 255
     3fe:	78 c0       	rjmp	.+240    	; 0x4f0 <__LOCK_REGION_LENGTH__+0xf0>
     400:	86 ff       	sbrs	r24, 6
     402:	41 c0       	rjmp	.+130    	; 0x486 <__LOCK_REGION_LENGTH__+0x86>
     404:	a0 91 1a 20 	lds	r26, 0x201A	; 0x80201a <transfer+0x2>
     408:	b0 91 1b 20 	lds	r27, 0x201B	; 0x80201b <transfer+0x3>
     40c:	80 91 1c 20 	lds	r24, 0x201C	; 0x80201c <transfer+0x4>
     410:	90 91 1d 20 	lds	r25, 0x201D	; 0x80201d <transfer+0x5>
     414:	14 96       	adiw	r26, 0x04	; 4
     416:	2d 91       	ld	r18, X+
     418:	3c 91       	ld	r19, X
     41a:	15 97       	sbiw	r26, 0x05	; 5
     41c:	82 17       	cp	r24, r18
     41e:	93 07       	cpc	r25, r19
     420:	64 f4       	brge	.+24     	; 0x43a <__LOCK_REGION_LENGTH__+0x3a>
     422:	9c 01       	movw	r18, r24
     424:	2f 5f       	subi	r18, 0xFF	; 255
     426:	3f 4f       	sbci	r19, 0xFF	; 255
     428:	20 93 1c 20 	sts	0x201C, r18	; 0x80201c <transfer+0x4>
     42c:	30 93 1d 20 	sts	0x201D, r19	; 0x80201d <transfer+0x5>
     430:	a8 0f       	add	r26, r24
     432:	b9 1f       	adc	r27, r25
     434:	11 96       	adiw	r26, 0x01	; 1
     436:	8c 91       	ld	r24, X
     438:	22 c0       	rjmp	.+68     	; 0x47e <__LOCK_REGION_LENGTH__+0x7e>
     43a:	80 91 1e 20 	lds	r24, 0x201E	; 0x80201e <transfer+0x6>
     43e:	90 91 1f 20 	lds	r25, 0x201F	; 0x80201f <transfer+0x7>
     442:	18 96       	adiw	r26, 0x08	; 8
     444:	2d 91       	ld	r18, X+
     446:	3c 91       	ld	r19, X
     448:	19 97       	sbiw	r26, 0x09	; 9
     44a:	82 17       	cp	r24, r18
     44c:	93 07       	cpc	r25, r19
     44e:	c8 f4       	brcc	.+50     	; 0x482 <__LOCK_REGION_LENGTH__+0x82>
     450:	20 91 20 20 	lds	r18, 0x2020	; 0x802020 <transfer+0x8>
     454:	22 23       	and	r18, r18
     456:	21 f0       	breq	.+8      	; 0x460 <__LOCK_REGION_LENGTH__+0x60>
     458:	86 81       	ldd	r24, Z+6	; 0x06
     45a:	81 60       	ori	r24, 0x01	; 1
     45c:	86 83       	std	Z+6, r24	; 0x06
     45e:	4a c0       	rjmp	.+148    	; 0x4f4 <__LOCK_REGION_LENGTH__+0xf4>
     460:	16 96       	adiw	r26, 0x06	; 6
     462:	2d 91       	ld	r18, X+
     464:	3c 91       	ld	r19, X
     466:	17 97       	sbiw	r26, 0x07	; 7
     468:	ac 01       	movw	r20, r24
     46a:	4f 5f       	subi	r20, 0xFF	; 255
     46c:	5f 4f       	sbci	r21, 0xFF	; 255
     46e:	40 93 1e 20 	sts	0x201E, r20	; 0x80201e <transfer+0x6>
     472:	50 93 1f 20 	sts	0x201F, r21	; 0x80201f <transfer+0x7>
     476:	d9 01       	movw	r26, r18
     478:	a8 0f       	add	r26, r24
     47a:	b9 1f       	adc	r27, r25
     47c:	8c 91       	ld	r24, X
     47e:	87 83       	std	Z+7, r24	; 0x07
     480:	39 c0       	rjmp	.+114    	; 0x4f4 <__LOCK_REGION_LENGTH__+0xf4>
     482:	83 e0       	ldi	r24, 0x03	; 3
     484:	2c c0       	rjmp	.+88     	; 0x4de <__LOCK_REGION_LENGTH__+0xde>
     486:	87 ff       	sbrs	r24, 7
     488:	32 c0       	rjmp	.+100    	; 0x4ee <__LOCK_REGION_LENGTH__+0xee>
     48a:	a0 91 1a 20 	lds	r26, 0x201A	; 0x80201a <transfer+0x2>
     48e:	b0 91 1b 20 	lds	r27, 0x201B	; 0x80201b <transfer+0x3>
     492:	80 91 1e 20 	lds	r24, 0x201E	; 0x80201e <transfer+0x6>
     496:	90 91 1f 20 	lds	r25, 0x201F	; 0x80201f <transfer+0x7>
     49a:	18 96       	adiw	r26, 0x08	; 8
     49c:	2d 91       	ld	r18, X+
     49e:	3c 91       	ld	r19, X
     4a0:	19 97       	sbiw	r26, 0x09	; 9
     4a2:	82 17       	cp	r24, r18
     4a4:	93 07       	cpc	r25, r19
     4a6:	f8 f4       	brcc	.+62     	; 0x4e6 <__LOCK_REGION_LENGTH__+0xe6>
     4a8:	16 96       	adiw	r26, 0x06	; 6
     4aa:	6d 91       	ld	r22, X+
     4ac:	7c 91       	ld	r23, X
     4ae:	17 97       	sbiw	r26, 0x07	; 7
     4b0:	9c 01       	movw	r18, r24
     4b2:	2f 5f       	subi	r18, 0xFF	; 255
     4b4:	3f 4f       	sbci	r19, 0xFF	; 255
     4b6:	20 93 1e 20 	sts	0x201E, r18	; 0x80201e <transfer+0x6>
     4ba:	30 93 1f 20 	sts	0x201F, r19	; 0x80201f <transfer+0x7>
     4be:	47 81       	ldd	r20, Z+7	; 0x07
     4c0:	eb 01       	movw	r28, r22
     4c2:	c8 0f       	add	r28, r24
     4c4:	d9 1f       	adc	r29, r25
     4c6:	48 83       	st	Y, r20
     4c8:	18 96       	adiw	r26, 0x08	; 8
     4ca:	8d 91       	ld	r24, X+
     4cc:	9c 91       	ld	r25, X
     4ce:	19 97       	sbiw	r26, 0x09	; 9
     4d0:	28 17       	cp	r18, r24
     4d2:	39 07       	cpc	r19, r25
     4d4:	18 f4       	brcc	.+6      	; 0x4dc <__LOCK_REGION_LENGTH__+0xdc>
     4d6:	82 e0       	ldi	r24, 0x02	; 2
     4d8:	83 83       	std	Z+3, r24	; 0x03
     4da:	0c c0       	rjmp	.+24     	; 0x4f4 <__LOCK_REGION_LENGTH__+0xf4>
     4dc:	87 e0       	ldi	r24, 0x07	; 7
     4de:	83 83       	std	Z+3, r24	; 0x03
     4e0:	10 92 22 20 	sts	0x2022, r1	; 0x802022 <transfer+0xa>
     4e4:	07 c0       	rjmp	.+14     	; 0x4f4 <__LOCK_REGION_LENGTH__+0xf4>
     4e6:	83 e0       	ldi	r24, 0x03	; 3
     4e8:	83 83       	std	Z+3, r24	; 0x03
     4ea:	89 ef       	ldi	r24, 0xF9	; 249
     4ec:	01 c0       	rjmp	.+2      	; 0x4f0 <__LOCK_REGION_LENGTH__+0xf0>
     4ee:	8b ef       	ldi	r24, 0xFB	; 251
     4f0:	80 93 22 20 	sts	0x2022, r24	; 0x802022 <transfer+0xa>
     4f4:	df 91       	pop	r29
     4f6:	cf 91       	pop	r28
     4f8:	08 95       	ret

000004fa <__vector_13>:
     4fa:	1f 92       	push	r1
     4fc:	0f 92       	push	r0
     4fe:	0f b6       	in	r0, 0x3f	; 63
     500:	0f 92       	push	r0
     502:	11 24       	eor	r1, r1
     504:	08 b6       	in	r0, 0x38	; 56
     506:	0f 92       	push	r0
     508:	18 be       	out	0x38, r1	; 56
     50a:	09 b6       	in	r0, 0x39	; 57
     50c:	0f 92       	push	r0
     50e:	19 be       	out	0x39, r1	; 57
     510:	0b b6       	in	r0, 0x3b	; 59
     512:	0f 92       	push	r0
     514:	1b be       	out	0x3b, r1	; 59
     516:	2f 93       	push	r18
     518:	3f 93       	push	r19
     51a:	4f 93       	push	r20
     51c:	5f 93       	push	r21
     51e:	6f 93       	push	r22
     520:	7f 93       	push	r23
     522:	8f 93       	push	r24
     524:	9f 93       	push	r25
     526:	af 93       	push	r26
     528:	bf 93       	push	r27
     52a:	ef 93       	push	r30
     52c:	ff 93       	push	r31
     52e:	52 df       	rcall	.-348    	; 0x3d4 <twim_interrupt_handler>
     530:	ff 91       	pop	r31
     532:	ef 91       	pop	r30
     534:	bf 91       	pop	r27
     536:	af 91       	pop	r26
     538:	9f 91       	pop	r25
     53a:	8f 91       	pop	r24
     53c:	7f 91       	pop	r23
     53e:	6f 91       	pop	r22
     540:	5f 91       	pop	r21
     542:	4f 91       	pop	r20
     544:	3f 91       	pop	r19
     546:	2f 91       	pop	r18
     548:	0f 90       	pop	r0
     54a:	0b be       	out	0x3b, r0	; 59
     54c:	0f 90       	pop	r0
     54e:	09 be       	out	0x39, r0	; 57
     550:	0f 90       	pop	r0
     552:	08 be       	out	0x38, r0	; 56
     554:	0f 90       	pop	r0
     556:	0f be       	out	0x3f, r0	; 63
     558:	0f 90       	pop	r0
     55a:	1f 90       	pop	r1
     55c:	18 95       	reti

0000055e <__vector_76>:
     55e:	1f 92       	push	r1
     560:	0f 92       	push	r0
     562:	0f b6       	in	r0, 0x3f	; 63
     564:	0f 92       	push	r0
     566:	11 24       	eor	r1, r1
     568:	08 b6       	in	r0, 0x38	; 56
     56a:	0f 92       	push	r0
     56c:	18 be       	out	0x38, r1	; 56
     56e:	09 b6       	in	r0, 0x39	; 57
     570:	0f 92       	push	r0
     572:	19 be       	out	0x39, r1	; 57
     574:	0b b6       	in	r0, 0x3b	; 59
     576:	0f 92       	push	r0
     578:	1b be       	out	0x3b, r1	; 59
     57a:	2f 93       	push	r18
     57c:	3f 93       	push	r19
     57e:	4f 93       	push	r20
     580:	5f 93       	push	r21
     582:	6f 93       	push	r22
     584:	7f 93       	push	r23
     586:	8f 93       	push	r24
     588:	9f 93       	push	r25
     58a:	af 93       	push	r26
     58c:	bf 93       	push	r27
     58e:	ef 93       	push	r30
     590:	ff 93       	push	r31
     592:	20 df       	rcall	.-448    	; 0x3d4 <twim_interrupt_handler>
     594:	ff 91       	pop	r31
     596:	ef 91       	pop	r30
     598:	bf 91       	pop	r27
     59a:	af 91       	pop	r26
     59c:	9f 91       	pop	r25
     59e:	8f 91       	pop	r24
     5a0:	7f 91       	pop	r23
     5a2:	6f 91       	pop	r22
     5a4:	5f 91       	pop	r21
     5a6:	4f 91       	pop	r20
     5a8:	3f 91       	pop	r19
     5aa:	2f 91       	pop	r18
     5ac:	0f 90       	pop	r0
     5ae:	0b be       	out	0x3b, r0	; 59
     5b0:	0f 90       	pop	r0
     5b2:	09 be       	out	0x39, r0	; 57
     5b4:	0f 90       	pop	r0
     5b6:	08 be       	out	0x38, r0	; 56
     5b8:	0f 90       	pop	r0
     5ba:	0f be       	out	0x3f, r0	; 63
     5bc:	0f 90       	pop	r0
     5be:	1f 90       	pop	r1
     5c0:	18 95       	reti

000005c2 <__vector_46>:
     5c2:	1f 92       	push	r1
     5c4:	0f 92       	push	r0
     5c6:	0f b6       	in	r0, 0x3f	; 63
     5c8:	0f 92       	push	r0
     5ca:	11 24       	eor	r1, r1
     5cc:	08 b6       	in	r0, 0x38	; 56
     5ce:	0f 92       	push	r0
     5d0:	18 be       	out	0x38, r1	; 56
     5d2:	09 b6       	in	r0, 0x39	; 57
     5d4:	0f 92       	push	r0
     5d6:	19 be       	out	0x39, r1	; 57
     5d8:	0b b6       	in	r0, 0x3b	; 59
     5da:	0f 92       	push	r0
     5dc:	1b be       	out	0x3b, r1	; 59
     5de:	2f 93       	push	r18
     5e0:	3f 93       	push	r19
     5e2:	4f 93       	push	r20
     5e4:	5f 93       	push	r21
     5e6:	6f 93       	push	r22
     5e8:	7f 93       	push	r23
     5ea:	8f 93       	push	r24
     5ec:	9f 93       	push	r25
     5ee:	af 93       	push	r26
     5f0:	bf 93       	push	r27
     5f2:	ef 93       	push	r30
     5f4:	ff 93       	push	r31
     5f6:	ee de       	rcall	.-548    	; 0x3d4 <twim_interrupt_handler>
     5f8:	ff 91       	pop	r31
     5fa:	ef 91       	pop	r30
     5fc:	bf 91       	pop	r27
     5fe:	af 91       	pop	r26
     600:	9f 91       	pop	r25
     602:	8f 91       	pop	r24
     604:	7f 91       	pop	r23
     606:	6f 91       	pop	r22
     608:	5f 91       	pop	r21
     60a:	4f 91       	pop	r20
     60c:	3f 91       	pop	r19
     60e:	2f 91       	pop	r18
     610:	0f 90       	pop	r0
     612:	0b be       	out	0x3b, r0	; 59
     614:	0f 90       	pop	r0
     616:	09 be       	out	0x39, r0	; 57
     618:	0f 90       	pop	r0
     61a:	08 be       	out	0x38, r0	; 56
     61c:	0f 90       	pop	r0
     61e:	0f be       	out	0x3f, r0	; 63
     620:	0f 90       	pop	r0
     622:	1f 90       	pop	r1
     624:	18 95       	reti

00000626 <__vector_107>:
     626:	1f 92       	push	r1
     628:	0f 92       	push	r0
     62a:	0f b6       	in	r0, 0x3f	; 63
     62c:	0f 92       	push	r0
     62e:	11 24       	eor	r1, r1
     630:	08 b6       	in	r0, 0x38	; 56
     632:	0f 92       	push	r0
     634:	18 be       	out	0x38, r1	; 56
     636:	09 b6       	in	r0, 0x39	; 57
     638:	0f 92       	push	r0
     63a:	19 be       	out	0x39, r1	; 57
     63c:	0b b6       	in	r0, 0x3b	; 59
     63e:	0f 92       	push	r0
     640:	1b be       	out	0x3b, r1	; 59
     642:	2f 93       	push	r18
     644:	3f 93       	push	r19
     646:	4f 93       	push	r20
     648:	5f 93       	push	r21
     64a:	6f 93       	push	r22
     64c:	7f 93       	push	r23
     64e:	8f 93       	push	r24
     650:	9f 93       	push	r25
     652:	af 93       	push	r26
     654:	bf 93       	push	r27
     656:	ef 93       	push	r30
     658:	ff 93       	push	r31
     65a:	bc de       	rcall	.-648    	; 0x3d4 <twim_interrupt_handler>
     65c:	ff 91       	pop	r31
     65e:	ef 91       	pop	r30
     660:	bf 91       	pop	r27
     662:	af 91       	pop	r26
     664:	9f 91       	pop	r25
     666:	8f 91       	pop	r24
     668:	7f 91       	pop	r23
     66a:	6f 91       	pop	r22
     66c:	5f 91       	pop	r21
     66e:	4f 91       	pop	r20
     670:	3f 91       	pop	r19
     672:	2f 91       	pop	r18
     674:	0f 90       	pop	r0
     676:	0b be       	out	0x3b, r0	; 59
     678:	0f 90       	pop	r0
     67a:	09 be       	out	0x39, r0	; 57
     67c:	0f 90       	pop	r0
     67e:	08 be       	out	0x38, r0	; 56
     680:	0f 90       	pop	r0
     682:	0f be       	out	0x3f, r0	; 63
     684:	0f 90       	pop	r0
     686:	1f 90       	pop	r1
     688:	18 95       	reti

0000068a <twi_master_init>:
     68a:	fc 01       	movw	r30, r24
     68c:	db 01       	movw	r26, r22
     68e:	14 96       	adiw	r26, 0x04	; 4
     690:	8c 91       	ld	r24, X
     692:	85 83       	std	Z+5, r24	; 0x05
     694:	88 eb       	ldi	r24, 0xB8	; 184
     696:	81 83       	std	Z+1, r24	; 0x01
     698:	81 e0       	ldi	r24, 0x01	; 1
     69a:	84 83       	std	Z+4, r24	; 0x04
     69c:	e8 e1       	ldi	r30, 0x18	; 24
     69e:	f0 e2       	ldi	r31, 0x20	; 32
     6a0:	11 86       	std	Z+9, r1	; 0x09
     6a2:	12 86       	std	Z+10, r1	; 0x0a
     6a4:	e0 ea       	ldi	r30, 0xA0	; 160
     6a6:	f0 e0       	ldi	r31, 0x00	; 0
     6a8:	82 81       	ldd	r24, Z+2	; 0x02
     6aa:	82 60       	ori	r24, 0x02	; 2
     6ac:	82 83       	std	Z+2, r24	; 0x02
     6ae:	78 94       	sei
     6b0:	80 e0       	ldi	r24, 0x00	; 0
     6b2:	08 95       	ret

000006b4 <twi_master_transfer>:
     6b4:	cf 93       	push	r28
     6b6:	df 93       	push	r29
     6b8:	1f 92       	push	r1
     6ba:	cd b7       	in	r28, 0x3d	; 61
     6bc:	de b7       	in	r29, 0x3e	; 62
     6be:	dc 01       	movw	r26, r24
     6c0:	fb 01       	movw	r30, r22
     6c2:	89 2b       	or	r24, r25
     6c4:	09 f4       	brne	.+2      	; 0x6c8 <twi_master_transfer+0x14>
     6c6:	44 c0       	rjmp	.+136    	; 0x750 <twi_master_transfer+0x9c>
     6c8:	30 97       	sbiw	r30, 0x00	; 0
     6ca:	09 f4       	brne	.+2      	; 0x6ce <twi_master_transfer+0x1a>
     6cc:	41 c0       	rjmp	.+130    	; 0x750 <twi_master_transfer+0x9c>
     6ce:	82 85       	ldd	r24, Z+10	; 0x0a
     6d0:	90 91 21 20 	lds	r25, 0x2021	; 0x802021 <transfer+0x9>
     6d4:	99 23       	and	r25, r25
     6d6:	19 f0       	breq	.+6      	; 0x6de <twi_master_transfer+0x2a>
     6d8:	81 11       	cpse	r24, r1
     6da:	3c c0       	rjmp	.+120    	; 0x754 <twi_master_transfer+0xa0>
     6dc:	ff cf       	rjmp	.-2      	; 0x6dc <twi_master_transfer+0x28>
     6de:	8f b7       	in	r24, 0x3f	; 63
     6e0:	89 83       	std	Y+1, r24	; 0x01
     6e2:	f8 94       	cli
     6e4:	89 81       	ldd	r24, Y+1	; 0x01
     6e6:	91 e0       	ldi	r25, 0x01	; 1
     6e8:	90 93 21 20 	sts	0x2021, r25	; 0x802021 <transfer+0x9>
     6ec:	90 e8       	ldi	r25, 0x80	; 128
     6ee:	90 93 22 20 	sts	0x2022, r25	; 0x802022 <transfer+0xa>
     6f2:	8f bf       	out	0x3f, r24	; 63
     6f4:	a0 93 18 20 	sts	0x2018, r26	; 0x802018 <transfer>
     6f8:	b0 93 19 20 	sts	0x2019, r27	; 0x802019 <transfer+0x1>
     6fc:	60 93 1a 20 	sts	0x201A, r22	; 0x80201a <transfer+0x2>
     700:	70 93 1b 20 	sts	0x201B, r23	; 0x80201b <transfer+0x3>
     704:	10 92 1c 20 	sts	0x201C, r1	; 0x80201c <transfer+0x4>
     708:	10 92 1d 20 	sts	0x201D, r1	; 0x80201d <transfer+0x5>
     70c:	10 92 1e 20 	sts	0x201E, r1	; 0x80201e <transfer+0x6>
     710:	10 92 1f 20 	sts	0x201F, r1	; 0x80201f <transfer+0x7>
     714:	40 93 20 20 	sts	0x2020, r20	; 0x802020 <transfer+0x8>
     718:	90 81       	ld	r25, Z
     71a:	99 0f       	add	r25, r25
     71c:	24 81       	ldd	r18, Z+4	; 0x04
     71e:	35 81       	ldd	r19, Z+5	; 0x05
     720:	23 2b       	or	r18, r19
     722:	11 f4       	brne	.+4      	; 0x728 <twi_master_transfer+0x74>
     724:	41 11       	cpse	r20, r1
     726:	91 60       	ori	r25, 0x01	; 1
     728:	16 96       	adiw	r26, 0x06	; 6
     72a:	9c 93       	st	X, r25
     72c:	80 91 22 20 	lds	r24, 0x2022	; 0x802022 <transfer+0xa>
     730:	80 38       	cpi	r24, 0x80	; 128
     732:	e1 f3       	breq	.-8      	; 0x72c <twi_master_transfer+0x78>
     734:	e0 91 18 20 	lds	r30, 0x2018	; 0x802018 <transfer>
     738:	f0 91 19 20 	lds	r31, 0x2019	; 0x802019 <transfer+0x1>
     73c:	84 81       	ldd	r24, Z+4	; 0x04
     73e:	83 70       	andi	r24, 0x03	; 3
     740:	81 30       	cpi	r24, 0x01	; 1
     742:	09 f0       	breq	.+2      	; 0x746 <twi_master_transfer+0x92>
     744:	f7 cf       	rjmp	.-18     	; 0x734 <twi_master_transfer+0x80>
     746:	80 91 22 20 	lds	r24, 0x2022	; 0x802022 <transfer+0xa>
     74a:	10 92 21 20 	sts	0x2021, r1	; 0x802021 <transfer+0x9>
     74e:	03 c0       	rjmp	.+6      	; 0x756 <twi_master_transfer+0xa2>
     750:	88 ef       	ldi	r24, 0xF8	; 248
     752:	01 c0       	rjmp	.+2      	; 0x756 <twi_master_transfer+0xa2>
     754:	86 ef       	ldi	r24, 0xF6	; 246
     756:	0f 90       	pop	r0
     758:	df 91       	pop	r29
     75a:	cf 91       	pop	r28
     75c:	08 95       	ret

0000075e <cpu_irq_save>:
     75e:	cf 93       	push	r28
     760:	df 93       	push	r29
     762:	1f 92       	push	r1
     764:	cd b7       	in	r28, 0x3d	; 61
     766:	de b7       	in	r29, 0x3e	; 62
     768:	8f b7       	in	r24, 0x3f	; 63
     76a:	89 83       	std	Y+1, r24	; 0x01
     76c:	f8 94       	cli
     76e:	89 81       	ldd	r24, Y+1	; 0x01
     770:	0f 90       	pop	r0
     772:	df 91       	pop	r29
     774:	cf 91       	pop	r28
     776:	08 95       	ret

00000778 <sysclk_init>:
     778:	8f ef       	ldi	r24, 0xFF	; 255
     77a:	80 93 70 00 	sts	0x0070, r24	; 0x800070 <__TEXT_REGION_LENGTH__+0x700070>
     77e:	80 93 71 00 	sts	0x0071, r24	; 0x800071 <__TEXT_REGION_LENGTH__+0x700071>
     782:	80 93 72 00 	sts	0x0072, r24	; 0x800072 <__TEXT_REGION_LENGTH__+0x700072>
     786:	80 93 73 00 	sts	0x0073, r24	; 0x800073 <__TEXT_REGION_LENGTH__+0x700073>
     78a:	80 93 74 00 	sts	0x0074, r24	; 0x800074 <__TEXT_REGION_LENGTH__+0x700074>
     78e:	80 93 75 00 	sts	0x0075, r24	; 0x800075 <__TEXT_REGION_LENGTH__+0x700075>
     792:	80 93 76 00 	sts	0x0076, r24	; 0x800076 <__TEXT_REGION_LENGTH__+0x700076>
     796:	e3 df       	rcall	.-58     	; 0x75e <cpu_irq_save>
     798:	90 91 50 00 	lds	r25, 0x0050	; 0x800050 <__TEXT_REGION_LENGTH__+0x700050>
     79c:	92 60       	ori	r25, 0x02	; 2
     79e:	90 93 50 00 	sts	0x0050, r25	; 0x800050 <__TEXT_REGION_LENGTH__+0x700050>
     7a2:	8f bf       	out	0x3f, r24	; 63
     7a4:	80 91 51 00 	lds	r24, 0x0051	; 0x800051 <__TEXT_REGION_LENGTH__+0x700051>
     7a8:	81 ff       	sbrs	r24, 1
     7aa:	fc cf       	rjmp	.-8      	; 0x7a4 <sysclk_init+0x2c>
     7ac:	61 e0       	ldi	r22, 0x01	; 1
     7ae:	80 e4       	ldi	r24, 0x40	; 64
     7b0:	90 e0       	ldi	r25, 0x00	; 0
     7b2:	32 d1       	rcall	.+612    	; 0xa18 <ccp_write_io>
     7b4:	d4 df       	rcall	.-88     	; 0x75e <cpu_irq_save>
     7b6:	90 91 50 00 	lds	r25, 0x0050	; 0x800050 <__TEXT_REGION_LENGTH__+0x700050>
     7ba:	9e 7f       	andi	r25, 0xFE	; 254
     7bc:	90 93 50 00 	sts	0x0050, r25	; 0x800050 <__TEXT_REGION_LENGTH__+0x700050>
     7c0:	8f bf       	out	0x3f, r24	; 63
     7c2:	82 e0       	ldi	r24, 0x02	; 2
     7c4:	80 93 52 00 	sts	0x0052, r24	; 0x800052 <__TEXT_REGION_LENGTH__+0x700052>
     7c8:	ca df       	rcall	.-108    	; 0x75e <cpu_irq_save>
     7ca:	90 91 50 00 	lds	r25, 0x0050	; 0x800050 <__TEXT_REGION_LENGTH__+0x700050>
     7ce:	98 60       	ori	r25, 0x08	; 8
     7d0:	90 93 50 00 	sts	0x0050, r25	; 0x800050 <__TEXT_REGION_LENGTH__+0x700050>
     7d4:	8f bf       	out	0x3f, r24	; 63
     7d6:	80 91 51 00 	lds	r24, 0x0051	; 0x800051 <__TEXT_REGION_LENGTH__+0x700051>
     7da:	83 ff       	sbrs	r24, 3
     7dc:	fc cf       	rjmp	.-8      	; 0x7d6 <sysclk_init+0x5e>
     7de:	8b e0       	ldi	r24, 0x0B	; 11
     7e0:	80 93 43 00 	sts	0x0043, r24	; 0x800043 <__TEXT_REGION_LENGTH__+0x700043>
     7e4:	08 95       	ret

000007e6 <sysclk_enable_module>:
     7e6:	1f 93       	push	r17
     7e8:	cf 93       	push	r28
     7ea:	df 93       	push	r29
     7ec:	1f 92       	push	r1
     7ee:	cd b7       	in	r28, 0x3d	; 61
     7f0:	de b7       	in	r29, 0x3e	; 62
     7f2:	18 2f       	mov	r17, r24
     7f4:	69 83       	std	Y+1, r22	; 0x01
     7f6:	b3 df       	rcall	.-154    	; 0x75e <cpu_irq_save>
     7f8:	e1 2f       	mov	r30, r17
     7fa:	f0 e0       	ldi	r31, 0x00	; 0
     7fc:	e0 59       	subi	r30, 0x90	; 144
     7fe:	ff 4f       	sbci	r31, 0xFF	; 255
     800:	69 81       	ldd	r22, Y+1	; 0x01
     802:	60 95       	com	r22
     804:	90 81       	ld	r25, Z
     806:	69 23       	and	r22, r25
     808:	60 83       	st	Z, r22
     80a:	8f bf       	out	0x3f, r24	; 63
     80c:	0f 90       	pop	r0
     80e:	df 91       	pop	r29
     810:	cf 91       	pop	r28
     812:	1f 91       	pop	r17
     814:	08 95       	ret

00000816 <rtc_get_time>:
     816:	0f 93       	push	r16
     818:	1f 93       	push	r17
     81a:	cf 93       	push	r28
     81c:	df 93       	push	r29
     81e:	1f 92       	push	r1
     820:	cd b7       	in	r28, 0x3d	; 61
     822:	de b7       	in	r29, 0x3e	; 62
     824:	80 91 01 04 	lds	r24, 0x0401	; 0x800401 <__TEXT_REGION_LENGTH__+0x700401>
     828:	80 fd       	sbrc	r24, 0
     82a:	fc cf       	rjmp	.-8      	; 0x824 <rtc_get_time+0xe>
     82c:	8f b7       	in	r24, 0x3f	; 63
     82e:	89 83       	std	Y+1, r24	; 0x01
     830:	f8 94       	cli
     832:	29 81       	ldd	r18, Y+1	; 0x01
     834:	80 91 3d 20 	lds	r24, 0x203D	; 0x80203d <rtc_data>
     838:	90 91 3e 20 	lds	r25, 0x203E	; 0x80203e <rtc_data+0x1>
     83c:	60 91 08 04 	lds	r22, 0x0408	; 0x800408 <__TEXT_REGION_LENGTH__+0x700408>
     840:	70 91 09 04 	lds	r23, 0x0409	; 0x800409 <__TEXT_REGION_LENGTH__+0x700409>
     844:	61 15       	cp	r22, r1
     846:	71 05       	cpc	r23, r1
     848:	21 f4       	brne	.+8      	; 0x852 <rtc_get_time+0x3c>
     84a:	30 91 03 04 	lds	r19, 0x0403	; 0x800403 <__TEXT_REGION_LENGTH__+0x700403>
     84e:	30 fd       	sbrc	r19, 0
     850:	01 96       	adiw	r24, 0x01	; 1
     852:	2f bf       	out	0x3f, r18	; 63
     854:	a0 e0       	ldi	r26, 0x00	; 0
     856:	b0 e0       	ldi	r27, 0x00	; 0
     858:	dc 01       	movw	r26, r24
     85a:	99 27       	eor	r25, r25
     85c:	88 27       	eor	r24, r24
     85e:	ab 01       	movw	r20, r22
     860:	60 e0       	ldi	r22, 0x00	; 0
     862:	70 e0       	ldi	r23, 0x00	; 0
     864:	8c 01       	movw	r16, r24
     866:	9d 01       	movw	r18, r26
     868:	04 2b       	or	r16, r20
     86a:	15 2b       	or	r17, r21
     86c:	26 2b       	or	r18, r22
     86e:	37 2b       	or	r19, r23
     870:	c9 01       	movw	r24, r18
     872:	b8 01       	movw	r22, r16
     874:	0f 90       	pop	r0
     876:	df 91       	pop	r29
     878:	cf 91       	pop	r28
     87a:	1f 91       	pop	r17
     87c:	0f 91       	pop	r16
     87e:	08 95       	ret

00000880 <rtc_init>:
     880:	cf 93       	push	r28
     882:	df 93       	push	r29
     884:	1f 92       	push	r1
     886:	cd b7       	in	r28, 0x3d	; 61
     888:	de b7       	in	r29, 0x3e	; 62
     88a:	64 e0       	ldi	r22, 0x04	; 4
     88c:	80 e0       	ldi	r24, 0x00	; 0
     88e:	ab df       	rcall	.-170    	; 0x7e6 <sysclk_enable_module>
     890:	8f ef       	ldi	r24, 0xFF	; 255
     892:	9f ef       	ldi	r25, 0xFF	; 255
     894:	80 93 0a 04 	sts	0x040A, r24	; 0x80040a <__TEXT_REGION_LENGTH__+0x70040a>
     898:	90 93 0b 04 	sts	0x040B, r25	; 0x80040b <__TEXT_REGION_LENGTH__+0x70040b>
     89c:	10 92 08 04 	sts	0x0408, r1	; 0x800408 <__TEXT_REGION_LENGTH__+0x700408>
     8a0:	10 92 09 04 	sts	0x0409, r1	; 0x800409 <__TEXT_REGION_LENGTH__+0x700409>
     8a4:	80 91 3a 20 	lds	r24, 0x203A	; 0x80203a <sleepmgr_locks+0x3>
     8a8:	8f 3f       	cpi	r24, 0xFF	; 255
     8aa:	09 f4       	brne	.+2      	; 0x8ae <rtc_init+0x2e>
     8ac:	ff cf       	rjmp	.-2      	; 0x8ac <rtc_init+0x2c>
     8ae:	8f b7       	in	r24, 0x3f	; 63
     8b0:	89 83       	std	Y+1, r24	; 0x01
     8b2:	f8 94       	cli
     8b4:	99 81       	ldd	r25, Y+1	; 0x01
     8b6:	80 91 3a 20 	lds	r24, 0x203A	; 0x80203a <sleepmgr_locks+0x3>
     8ba:	8f 5f       	subi	r24, 0xFF	; 255
     8bc:	80 93 3a 20 	sts	0x203A, r24	; 0x80203a <sleepmgr_locks+0x3>
     8c0:	9f bf       	out	0x3f, r25	; 63
     8c2:	81 e0       	ldi	r24, 0x01	; 1
     8c4:	80 93 02 04 	sts	0x0402, r24	; 0x800402 <__TEXT_REGION_LENGTH__+0x700402>
     8c8:	80 93 00 04 	sts	0x0400, r24	; 0x800400 <__TEXT_REGION_LENGTH__+0x700400>
     8cc:	0f 90       	pop	r0
     8ce:	df 91       	pop	r29
     8d0:	cf 91       	pop	r28
     8d2:	08 95       	ret

000008d4 <__vector_10>:
     8d4:	1f 92       	push	r1
     8d6:	0f 92       	push	r0
     8d8:	0f b6       	in	r0, 0x3f	; 63
     8da:	0f 92       	push	r0
     8dc:	11 24       	eor	r1, r1
     8de:	08 b6       	in	r0, 0x38	; 56
     8e0:	0f 92       	push	r0
     8e2:	18 be       	out	0x38, r1	; 56
     8e4:	0b b6       	in	r0, 0x3b	; 59
     8e6:	0f 92       	push	r0
     8e8:	1b be       	out	0x3b, r1	; 59
     8ea:	8f 93       	push	r24
     8ec:	9f 93       	push	r25
     8ee:	ef 93       	push	r30
     8f0:	ff 93       	push	r31
     8f2:	ed e3       	ldi	r30, 0x3D	; 61
     8f4:	f0 e2       	ldi	r31, 0x20	; 32
     8f6:	80 81       	ld	r24, Z
     8f8:	91 81       	ldd	r25, Z+1	; 0x01
     8fa:	01 96       	adiw	r24, 0x01	; 1
     8fc:	80 83       	st	Z, r24
     8fe:	91 83       	std	Z+1, r25	; 0x01
     900:	ff 91       	pop	r31
     902:	ef 91       	pop	r30
     904:	9f 91       	pop	r25
     906:	8f 91       	pop	r24
     908:	0f 90       	pop	r0
     90a:	0b be       	out	0x3b, r0	; 59
     90c:	0f 90       	pop	r0
     90e:	08 be       	out	0x38, r0	; 56
     910:	0f 90       	pop	r0
     912:	0f be       	out	0x3f, r0	; 63
     914:	0f 90       	pop	r0
     916:	1f 90       	pop	r1
     918:	18 95       	reti

0000091a <__vector_11>:
     91a:	1f 92       	push	r1
     91c:	0f 92       	push	r0
     91e:	0f b6       	in	r0, 0x3f	; 63
     920:	0f 92       	push	r0
     922:	11 24       	eor	r1, r1
     924:	08 b6       	in	r0, 0x38	; 56
     926:	0f 92       	push	r0
     928:	18 be       	out	0x38, r1	; 56
     92a:	09 b6       	in	r0, 0x39	; 57
     92c:	0f 92       	push	r0
     92e:	19 be       	out	0x39, r1	; 57
     930:	0b b6       	in	r0, 0x3b	; 59
     932:	0f 92       	push	r0
     934:	1b be       	out	0x3b, r1	; 59
     936:	cf 92       	push	r12
     938:	df 92       	push	r13
     93a:	ef 92       	push	r14
     93c:	ff 92       	push	r15
     93e:	0f 93       	push	r16
     940:	1f 93       	push	r17
     942:	2f 93       	push	r18
     944:	3f 93       	push	r19
     946:	4f 93       	push	r20
     948:	5f 93       	push	r21
     94a:	6f 93       	push	r22
     94c:	7f 93       	push	r23
     94e:	8f 93       	push	r24
     950:	9f 93       	push	r25
     952:	af 93       	push	r26
     954:	bf 93       	push	r27
     956:	ef 93       	push	r30
     958:	ff 93       	push	r31
     95a:	40 91 3d 20 	lds	r20, 0x203D	; 0x80203d <rtc_data>
     95e:	50 91 3e 20 	lds	r21, 0x203E	; 0x80203e <rtc_data+0x1>
     962:	00 91 3f 20 	lds	r16, 0x203F	; 0x80203f <rtc_data+0x2>
     966:	10 91 40 20 	lds	r17, 0x2040	; 0x802040 <rtc_data+0x3>
     96a:	40 17       	cp	r20, r16
     96c:	51 07       	cpc	r21, r17
     96e:	b8 f1       	brcs	.+110    	; 0x9de <__vector_11+0xc4>
     970:	81 e0       	ldi	r24, 0x01	; 1
     972:	80 93 02 04 	sts	0x0402, r24	; 0x800402 <__TEXT_REGION_LENGTH__+0x700402>
     976:	e0 91 43 20 	lds	r30, 0x2043	; 0x802043 <rtc_data+0x6>
     97a:	f0 91 44 20 	lds	r31, 0x2044	; 0x802044 <rtc_data+0x7>
     97e:	30 97       	sbiw	r30, 0x00	; 0
     980:	71 f1       	breq	.+92     	; 0x9de <__vector_11+0xc4>
     982:	80 91 08 04 	lds	r24, 0x0408	; 0x800408 <__TEXT_REGION_LENGTH__+0x700408>
     986:	90 91 09 04 	lds	r25, 0x0409	; 0x800409 <__TEXT_REGION_LENGTH__+0x700409>
     98a:	60 e0       	ldi	r22, 0x00	; 0
     98c:	70 e0       	ldi	r23, 0x00	; 0
     98e:	ba 01       	movw	r22, r20
     990:	55 27       	eor	r21, r21
     992:	44 27       	eor	r20, r20
     994:	a0 e0       	ldi	r26, 0x00	; 0
     996:	b0 e0       	ldi	r27, 0x00	; 0
     998:	6a 01       	movw	r12, r20
     99a:	7b 01       	movw	r14, r22
     99c:	c8 2a       	or	r12, r24
     99e:	d9 2a       	or	r13, r25
     9a0:	ea 2a       	or	r14, r26
     9a2:	fb 2a       	or	r15, r27
     9a4:	c7 01       	movw	r24, r14
     9a6:	b6 01       	movw	r22, r12
     9a8:	20 e0       	ldi	r18, 0x00	; 0
     9aa:	30 e0       	ldi	r19, 0x00	; 0
     9ac:	98 01       	movw	r18, r16
     9ae:	11 27       	eor	r17, r17
     9b0:	00 27       	eor	r16, r16
     9b2:	c0 90 41 20 	lds	r12, 0x2041	; 0x802041 <rtc_data+0x4>
     9b6:	d0 90 42 20 	lds	r13, 0x2042	; 0x802042 <rtc_data+0x5>
     9ba:	e1 2c       	mov	r14, r1
     9bc:	f1 2c       	mov	r15, r1
     9be:	0c 29       	or	r16, r12
     9c0:	1d 29       	or	r17, r13
     9c2:	2e 29       	or	r18, r14
     9c4:	3f 29       	or	r19, r15
     9c6:	06 17       	cp	r16, r22
     9c8:	17 07       	cpc	r17, r23
     9ca:	28 07       	cpc	r18, r24
     9cc:	39 07       	cpc	r19, r25
     9ce:	30 f0       	brcs	.+12     	; 0x9dc <__vector_11+0xc2>
     9d0:	c9 01       	movw	r24, r18
     9d2:	b8 01       	movw	r22, r16
     9d4:	6f 5f       	subi	r22, 0xFF	; 255
     9d6:	7f 4f       	sbci	r23, 0xFF	; 255
     9d8:	8f 4f       	sbci	r24, 0xFF	; 255
     9da:	9f 4f       	sbci	r25, 0xFF	; 255
     9dc:	19 95       	eicall
     9de:	ff 91       	pop	r31
     9e0:	ef 91       	pop	r30
     9e2:	bf 91       	pop	r27
     9e4:	af 91       	pop	r26
     9e6:	9f 91       	pop	r25
     9e8:	8f 91       	pop	r24
     9ea:	7f 91       	pop	r23
     9ec:	6f 91       	pop	r22
     9ee:	5f 91       	pop	r21
     9f0:	4f 91       	pop	r20
     9f2:	3f 91       	pop	r19
     9f4:	2f 91       	pop	r18
     9f6:	1f 91       	pop	r17
     9f8:	0f 91       	pop	r16
     9fa:	ff 90       	pop	r15
     9fc:	ef 90       	pop	r14
     9fe:	df 90       	pop	r13
     a00:	cf 90       	pop	r12
     a02:	0f 90       	pop	r0
     a04:	0b be       	out	0x3b, r0	; 59
     a06:	0f 90       	pop	r0
     a08:	09 be       	out	0x39, r0	; 57
     a0a:	0f 90       	pop	r0
     a0c:	08 be       	out	0x38, r0	; 56
     a0e:	0f 90       	pop	r0
     a10:	0f be       	out	0x3f, r0	; 63
     a12:	0f 90       	pop	r0
     a14:	1f 90       	pop	r1
     a16:	18 95       	reti

00000a18 <ccp_write_io>:

	PUBLIC_FUNCTION(ccp_write_io)

#if defined(__GNUC__)

	out     RAMPZ, r1               // Reset bits 23:16 of Z
     a18:	1b be       	out	0x3b, r1	; 59
	movw    r30, r24                // Load addr into Z
     a1a:	fc 01       	movw	r30, r24
	ldi     r18, CCP_IOREG          // Load magic CCP value
     a1c:	28 ed       	ldi	r18, 0xD8	; 216
	out     CCP, r18                // Start CCP handshake
     a1e:	24 bf       	out	0x34, r18	; 52
	st      Z, r22                  // Write value to I/O register
     a20:	60 83       	st	Z, r22
	ret                             // Return to caller
     a22:	08 95       	ret

00000a24 <circular_buffer_push>:
     a24:	fc 01       	movw	r30, r24
     a26:	e8 58       	subi	r30, 0x88	; 136
     a28:	ff 4f       	sbci	r31, 0xFF	; 255
     a2a:	20 81       	ld	r18, Z
     a2c:	dc 01       	movw	r26, r24
     a2e:	a2 0f       	add	r26, r18
     a30:	b1 1d       	adc	r27, r1
     a32:	6c 93       	st	X, r22
     a34:	80 81       	ld	r24, Z
     a36:	8f 5f       	subi	r24, 0xFF	; 255
     a38:	80 83       	st	Z, r24
     a3a:	80 81       	ld	r24, Z
     a3c:	68 e7       	ldi	r22, 0x78	; 120
     a3e:	0e d3       	rcall	.+1564   	; 0x105c <__udivmodqi4>
     a40:	90 83       	st	Z, r25
     a42:	08 95       	ret

00000a44 <circular_buffer_pop>:
     a44:	fc 01       	movw	r30, r24
     a46:	e7 58       	subi	r30, 0x87	; 135
     a48:	ff 4f       	sbci	r31, 0xFF	; 255
     a4a:	20 81       	ld	r18, Z
     a4c:	dc 01       	movw	r26, r24
     a4e:	a2 0f       	add	r26, r18
     a50:	b1 1d       	adc	r27, r1
     a52:	2c 91       	ld	r18, X
     a54:	90 81       	ld	r25, Z
     a56:	9f 5f       	subi	r25, 0xFF	; 255
     a58:	90 83       	st	Z, r25
     a5a:	80 81       	ld	r24, Z
     a5c:	68 e7       	ldi	r22, 0x78	; 120
     a5e:	fe d2       	rcall	.+1532   	; 0x105c <__udivmodqi4>
     a60:	90 83       	st	Z, r25
     a62:	82 2f       	mov	r24, r18
     a64:	08 95       	ret

00000a66 <circular_buffer_size>:
     a66:	fc 01       	movw	r30, r24
     a68:	e8 58       	subi	r30, 0x88	; 136
     a6a:	ff 4f       	sbci	r31, 0xFF	; 255
     a6c:	90 81       	ld	r25, Z
     a6e:	31 96       	adiw	r30, 0x01	; 1
     a70:	20 81       	ld	r18, Z
     a72:	89 2f       	mov	r24, r25
     a74:	90 e0       	ldi	r25, 0x00	; 0
     a76:	82 1b       	sub	r24, r18
     a78:	91 09       	sbc	r25, r1
     a7a:	97 ff       	sbrs	r25, 7
     a7c:	03 c0       	rjmp	.+6      	; 0xa84 <circular_buffer_size+0x1e>
     a7e:	91 95       	neg	r25
     a80:	81 95       	neg	r24
     a82:	91 09       	sbc	r25, r1
     a84:	08 95       	ret

00000a86 <__vector_24>:
     a86:	1f 92       	push	r1
     a88:	0f 92       	push	r0
     a8a:	0f b6       	in	r0, 0x3f	; 63
     a8c:	0f 92       	push	r0
     a8e:	11 24       	eor	r1, r1
     a90:	08 b6       	in	r0, 0x38	; 56
     a92:	0f 92       	push	r0
     a94:	18 be       	out	0x38, r1	; 56
     a96:	09 b6       	in	r0, 0x39	; 57
     a98:	0f 92       	push	r0
     a9a:	19 be       	out	0x39, r1	; 57
     a9c:	0b b6       	in	r0, 0x3b	; 59
     a9e:	0f 92       	push	r0
     aa0:	1b be       	out	0x3b, r1	; 59
     aa2:	2f 93       	push	r18
     aa4:	3f 93       	push	r19
     aa6:	4f 93       	push	r20
     aa8:	5f 93       	push	r21
     aaa:	6f 93       	push	r22
     aac:	7f 93       	push	r23
     aae:	8f 93       	push	r24
     ab0:	9f 93       	push	r25
     ab2:	af 93       	push	r26
     ab4:	bf 93       	push	r27
     ab6:	ef 93       	push	r30
     ab8:	ff 93       	push	r31
     aba:	60 91 c3 08 	lds	r22, 0x08C3	; 0x8008c3 <__TEXT_REGION_LENGTH__+0x7008c3>
     abe:	85 e4       	ldi	r24, 0x45	; 69
     ac0:	90 e2       	ldi	r25, 0x20	; 32
     ac2:	b0 df       	rcall	.-160    	; 0xa24 <circular_buffer_push>
     ac4:	84 ec       	ldi	r24, 0xC4	; 196
     ac6:	90 e2       	ldi	r25, 0x20	; 32
     ac8:	ce df       	rcall	.-100    	; 0xa66 <circular_buffer_size>
     aca:	88 23       	and	r24, r24
     acc:	29 f0       	breq	.+10     	; 0xad8 <__vector_24+0x52>
     ace:	84 ec       	ldi	r24, 0xC4	; 196
     ad0:	90 e2       	ldi	r25, 0x20	; 32
     ad2:	b8 df       	rcall	.-144    	; 0xa44 <circular_buffer_pop>
     ad4:	80 93 c3 08 	sts	0x08C3, r24	; 0x8008c3 <__TEXT_REGION_LENGTH__+0x7008c3>
     ad8:	81 e0       	ldi	r24, 0x01	; 1
     ada:	80 93 34 20 	sts	0x2034, r24	; 0x802034 <spi_isr>
     ade:	ff 91       	pop	r31
     ae0:	ef 91       	pop	r30
     ae2:	bf 91       	pop	r27
     ae4:	af 91       	pop	r26
     ae6:	9f 91       	pop	r25
     ae8:	8f 91       	pop	r24
     aea:	7f 91       	pop	r23
     aec:	6f 91       	pop	r22
     aee:	5f 91       	pop	r21
     af0:	4f 91       	pop	r20
     af2:	3f 91       	pop	r19
     af4:	2f 91       	pop	r18
     af6:	0f 90       	pop	r0
     af8:	0b be       	out	0x3b, r0	; 59
     afa:	0f 90       	pop	r0
     afc:	09 be       	out	0x39, r0	; 57
     afe:	0f 90       	pop	r0
     b00:	08 be       	out	0x38, r0	; 56
     b02:	0f 90       	pop	r0
     b04:	0f be       	out	0x3f, r0	; 63
     b06:	0f 90       	pop	r0
     b08:	1f 90       	pop	r1
     b0a:	18 95       	reti

00000b0c <init_spi_to_bbb>:
     b0c:	68 e0       	ldi	r22, 0x08	; 8
     b0e:	83 e0       	ldi	r24, 0x03	; 3
     b10:	6a de       	rcall	.-812    	; 0x7e6 <sysclk_enable_module>
     b12:	80 e4       	ldi	r24, 0x40	; 64
     b14:	80 93 40 06 	sts	0x0640, r24	; 0x800640 <__TEXT_REGION_LENGTH__+0x700640>
     b18:	e0 ec       	ldi	r30, 0xC0	; 192
     b1a:	f8 e0       	ldi	r31, 0x08	; 8
     b1c:	80 83       	st	Z, r24
     b1e:	83 e0       	ldi	r24, 0x03	; 3
     b20:	81 83       	std	Z+1, r24	; 0x01
     b22:	84 e0       	ldi	r24, 0x04	; 4
     b24:	80 93 a2 00 	sts	0x00A2, r24	; 0x8000a2 <__TEXT_REGION_LENGTH__+0x7000a2>
     b28:	8a e7       	ldi	r24, 0x7A	; 122
     b2a:	e5 e4       	ldi	r30, 0x45	; 69
     b2c:	f0 e2       	ldi	r31, 0x20	; 32
     b2e:	df 01       	movw	r26, r30
     b30:	98 2f       	mov	r25, r24
     b32:	1d 92       	st	X+, r1
     b34:	9a 95       	dec	r25
     b36:	e9 f7       	brne	.-6      	; 0xb32 <init_spi_to_bbb+0x26>
     b38:	e4 ec       	ldi	r30, 0xC4	; 196
     b3a:	f0 e2       	ldi	r31, 0x20	; 32
     b3c:	df 01       	movw	r26, r30
     b3e:	1d 92       	st	X+, r1
     b40:	8a 95       	dec	r24
     b42:	e9 f7       	brne	.-6      	; 0xb3e <init_spi_to_bbb+0x32>
     b44:	08 95       	ret

00000b46 <handle_spi_to_bbb>:
     b46:	df 92       	push	r13
     b48:	ef 92       	push	r14
     b4a:	ff 92       	push	r15
     b4c:	0f 93       	push	r16
     b4e:	1f 93       	push	r17
     b50:	cf 93       	push	r28
     b52:	df 93       	push	r29
     b54:	35 e0       	ldi	r19, 0x05	; 5
     b56:	f3 2e       	mov	r15, r19
     b58:	11 e0       	ldi	r17, 0x01	; 1
     b5a:	4c e0       	ldi	r20, 0x0C	; 12
     b5c:	e4 2e       	mov	r14, r20
     b5e:	0e e0       	ldi	r16, 0x0E	; 14
     b60:	c5 e0       	ldi	r28, 0x05	; 5
     b62:	d0 e0       	ldi	r29, 0x00	; 0
     b64:	5a ea       	ldi	r21, 0xAA	; 170
     b66:	d5 2e       	mov	r13, r21
     b68:	85 e4       	ldi	r24, 0x45	; 69
     b6a:	90 e2       	ldi	r25, 0x20	; 32
     b6c:	7c df       	rcall	.-264    	; 0xa66 <circular_buffer_size>
     b6e:	88 23       	and	r24, r24
     b70:	09 f4       	brne	.+2      	; 0xb74 <handle_spi_to_bbb+0x2e>
     b72:	a1 c0       	rjmp	.+322    	; 0xcb6 <handle_spi_to_bbb+0x170>
     b74:	85 e4       	ldi	r24, 0x45	; 69
     b76:	90 e2       	ldi	r25, 0x20	; 32
     b78:	65 df       	rcall	.-310    	; 0xa44 <circular_buffer_pop>
     b7a:	80 93 2e 20 	sts	0x202E, r24	; 0x80202e <rx_byte>
     b7e:	80 91 2e 20 	lds	r24, 0x202E	; 0x80202e <rx_byte>
     b82:	8a 3a       	cpi	r24, 0xAA	; 170
     b84:	81 f4       	brne	.+32     	; 0xba6 <handle_spi_to_bbb+0x60>
     b86:	f0 92 2d 20 	sts	0x202D, r15	; 0x80202d <cmd_idx>
     b8a:	10 92 28 20 	sts	0x2028, r1	; 0x802028 <cmd_finished>
     b8e:	10 92 27 20 	sts	0x2027, r1	; 0x802027 <send_idx>
     b92:	10 92 26 20 	sts	0x2026, r1	; 0x802026 <send_crc_length>
     b96:	10 92 24 20 	sts	0x2024, r1	; 0x802024 <send_crc>
     b9a:	10 92 25 20 	sts	0x2025, r1	; 0x802025 <send_crc+0x1>
     b9e:	10 92 23 20 	sts	0x2023, r1	; 0x802023 <send_crc_idx>
     ba2:	10 93 33 20 	sts	0x2033, r17	; 0x802033 <spi_transfer>
     ba6:	80 91 2d 20 	lds	r24, 0x202D	; 0x80202d <cmd_idx>
     baa:	88 23       	and	r24, r24
     bac:	c1 f1       	breq	.+112    	; 0xc1e <handle_spi_to_bbb+0xd8>
     bae:	90 91 2e 20 	lds	r25, 0x202E	; 0x80202e <rx_byte>
     bb2:	fe 01       	movw	r30, r28
     bb4:	e8 1b       	sub	r30, r24
     bb6:	f1 09       	sbc	r31, r1
     bb8:	e1 54       	subi	r30, 0x41	; 65
     bba:	ff 4d       	sbci	r31, 0xDF	; 223
     bbc:	90 83       	st	Z, r25
     bbe:	81 50       	subi	r24, 0x01	; 1
     bc0:	80 93 2d 20 	sts	0x202D, r24	; 0x80202d <cmd_idx>
     bc4:	81 11       	cpse	r24, r1
     bc6:	74 c0       	rjmp	.+232    	; 0xcb0 <handle_spi_to_bbb+0x16a>
     bc8:	80 91 c3 20 	lds	r24, 0x20C3	; 0x8020c3 <cmd_data+0x4>
     bcc:	90 e0       	ldi	r25, 0x00	; 0
     bce:	98 2f       	mov	r25, r24
     bd0:	88 27       	eor	r24, r24
     bd2:	20 91 c2 20 	lds	r18, 0x20C2	; 0x8020c2 <cmd_data+0x3>
     bd6:	82 2b       	or	r24, r18
     bd8:	80 93 2b 20 	sts	0x202B, r24	; 0x80202b <received_crc>
     bdc:	90 93 2c 20 	sts	0x202C, r25	; 0x80202c <received_crc+0x1>
     be0:	40 e0       	ldi	r20, 0x00	; 0
     be2:	63 e0       	ldi	r22, 0x03	; 3
     be4:	70 e0       	ldi	r23, 0x00	; 0
     be6:	8f eb       	ldi	r24, 0xBF	; 191
     be8:	90 e2       	ldi	r25, 0x20	; 32
     bea:	d3 db       	rcall	.-2138   	; 0x392 <crc_io_checksum>
     bec:	60 93 29 20 	sts	0x2029, r22	; 0x802029 <calculated_crc>
     bf0:	70 93 2a 20 	sts	0x202A, r23	; 0x80202a <calculated_crc+0x1>
     bf4:	20 91 2b 20 	lds	r18, 0x202B	; 0x80202b <received_crc>
     bf8:	30 91 2c 20 	lds	r19, 0x202C	; 0x80202c <received_crc+0x1>
     bfc:	26 17       	cp	r18, r22
     bfe:	37 07       	cpc	r19, r23
     c00:	49 f4       	brne	.+18     	; 0xc14 <handle_spi_to_bbb+0xce>
     c02:	d0 92 c3 08 	sts	0x08C3, r13	; 0x8008c3 <__TEXT_REGION_LENGTH__+0x7008c3>
     c06:	6a ea       	ldi	r22, 0xAA	; 170
     c08:	84 ec       	ldi	r24, 0xC4	; 196
     c0a:	90 e2       	ldi	r25, 0x20	; 32
     c0c:	0b df       	rcall	.-490    	; 0xa24 <circular_buffer_push>
     c0e:	10 93 28 20 	sts	0x2028, r17	; 0x802028 <cmd_finished>
     c12:	4e c0       	rjmp	.+156    	; 0xcb0 <handle_spi_to_bbb+0x16a>
     c14:	60 ef       	ldi	r22, 0xF0	; 240
     c16:	84 ec       	ldi	r24, 0xC4	; 196
     c18:	90 e2       	ldi	r25, 0x20	; 32
     c1a:	04 df       	rcall	.-504    	; 0xa24 <circular_buffer_push>
     c1c:	49 c0       	rjmp	.+146    	; 0xcb0 <handle_spi_to_bbb+0x16a>
     c1e:	80 91 28 20 	lds	r24, 0x2028	; 0x802028 <cmd_finished>
     c22:	88 23       	and	r24, r24
     c24:	09 f4       	brne	.+2      	; 0xc28 <handle_spi_to_bbb+0xe2>
     c26:	44 c0       	rjmp	.+136    	; 0xcb0 <handle_spi_to_bbb+0x16a>
     c28:	e8 e0       	ldi	r30, 0x08	; 8
     c2a:	f0 e2       	ldi	r31, 0x20	; 32
     c2c:	ae e3       	ldi	r26, 0x3E	; 62
     c2e:	b1 e2       	ldi	r27, 0x21	; 33
     c30:	8e 2d       	mov	r24, r14
     c32:	01 90       	ld	r0, Z+
     c34:	0d 92       	st	X+, r0
     c36:	8a 95       	dec	r24
     c38:	e1 f7       	brne	.-8      	; 0xc32 <handle_spi_to_bbb+0xec>
     c3a:	80 91 35 20 	lds	r24, 0x2035	; 0x802035 <sensor_status>
     c3e:	80 93 4a 21 	sts	0x214A, r24	; 0x80214a <send_data+0xc>
     c42:	80 91 36 20 	lds	r24, 0x2036	; 0x802036 <state>
     c46:	80 93 4b 21 	sts	0x214B, r24	; 0x80214b <send_data+0xd>
     c4a:	00 93 27 20 	sts	0x2027, r16	; 0x802027 <send_idx>
     c4e:	00 93 26 20 	sts	0x2026, r16	; 0x802026 <send_crc_length>
     c52:	10 92 28 20 	sts	0x2028, r1	; 0x802028 <cmd_finished>
     c56:	80 91 27 20 	lds	r24, 0x2027	; 0x802027 <send_idx>
     c5a:	88 23       	and	r24, r24
     c5c:	39 f1       	breq	.+78     	; 0xcac <handle_spi_to_bbb+0x166>
     c5e:	e0 91 26 20 	lds	r30, 0x2026	; 0x802026 <send_crc_length>
     c62:	f0 e0       	ldi	r31, 0x00	; 0
     c64:	e8 1b       	sub	r30, r24
     c66:	f1 09       	sbc	r31, r1
     c68:	e2 5c       	subi	r30, 0xC2	; 194
     c6a:	fe 4d       	sbci	r31, 0xDE	; 222
     c6c:	60 81       	ld	r22, Z
     c6e:	84 ec       	ldi	r24, 0xC4	; 196
     c70:	90 e2       	ldi	r25, 0x20	; 32
     c72:	d8 de       	rcall	.-592    	; 0xa24 <circular_buffer_push>
     c74:	80 91 27 20 	lds	r24, 0x2027	; 0x802027 <send_idx>
     c78:	81 50       	subi	r24, 0x01	; 1
     c7a:	80 93 27 20 	sts	0x2027, r24	; 0x802027 <send_idx>
     c7e:	81 11       	cpse	r24, r1
     c80:	ea cf       	rjmp	.-44     	; 0xc56 <handle_spi_to_bbb+0x110>
     c82:	60 91 26 20 	lds	r22, 0x2026	; 0x802026 <send_crc_length>
     c86:	70 e0       	ldi	r23, 0x00	; 0
     c88:	40 e0       	ldi	r20, 0x00	; 0
     c8a:	8e e3       	ldi	r24, 0x3E	; 62
     c8c:	91 e2       	ldi	r25, 0x21	; 33
     c8e:	81 db       	rcall	.-2302   	; 0x392 <crc_io_checksum>
     c90:	cb 01       	movw	r24, r22
     c92:	60 93 24 20 	sts	0x2024, r22	; 0x802024 <send_crc>
     c96:	90 93 25 20 	sts	0x2025, r25	; 0x802025 <send_crc+0x1>
     c9a:	84 ec       	ldi	r24, 0xC4	; 196
     c9c:	90 e2       	ldi	r25, 0x20	; 32
     c9e:	c2 de       	rcall	.-636    	; 0xa24 <circular_buffer_push>
     ca0:	60 91 25 20 	lds	r22, 0x2025	; 0x802025 <send_crc+0x1>
     ca4:	84 ec       	ldi	r24, 0xC4	; 196
     ca6:	90 e2       	ldi	r25, 0x20	; 32
     ca8:	bd de       	rcall	.-646    	; 0xa24 <circular_buffer_push>
     caa:	d5 cf       	rjmp	.-86     	; 0xc56 <handle_spi_to_bbb+0x110>
     cac:	10 92 33 20 	sts	0x2033, r1	; 0x802033 <spi_transfer>
     cb0:	10 92 34 20 	sts	0x2034, r1	; 0x802034 <spi_isr>
     cb4:	59 cf       	rjmp	.-334    	; 0xb68 <handle_spi_to_bbb+0x22>
     cb6:	df 91       	pop	r29
     cb8:	cf 91       	pop	r28
     cba:	1f 91       	pop	r17
     cbc:	0f 91       	pop	r16
     cbe:	ff 90       	pop	r15
     cc0:	ef 90       	pop	r14
     cc2:	df 90       	pop	r13
     cc4:	08 95       	ret

00000cc6 <ioport_configure_port_pin>:
     cc6:	fc 01       	movw	r30, r24
     cc8:	80 e0       	ldi	r24, 0x00	; 0
     cca:	90 e0       	ldi	r25, 0x00	; 0
     ccc:	26 2f       	mov	r18, r22
     cce:	30 e0       	ldi	r19, 0x00	; 0
     cd0:	d9 01       	movw	r26, r18
     cd2:	08 2e       	mov	r0, r24
     cd4:	02 c0       	rjmp	.+4      	; 0xcda <ioport_configure_port_pin+0x14>
     cd6:	b5 95       	asr	r27
     cd8:	a7 95       	ror	r26
     cda:	0a 94       	dec	r0
     cdc:	e2 f7       	brpl	.-8      	; 0xcd6 <ioport_configure_port_pin+0x10>
     cde:	a0 ff       	sbrs	r26, 0
     ce0:	05 c0       	rjmp	.+10     	; 0xcec <ioport_configure_port_pin+0x26>
     ce2:	df 01       	movw	r26, r30
     ce4:	a8 0f       	add	r26, r24
     ce6:	b9 1f       	adc	r27, r25
     ce8:	50 96       	adiw	r26, 0x10	; 16
     cea:	5c 93       	st	X, r21
     cec:	01 96       	adiw	r24, 0x01	; 1
     cee:	88 30       	cpi	r24, 0x08	; 8
     cf0:	91 05       	cpc	r25, r1
     cf2:	71 f7       	brne	.-36     	; 0xcd0 <ioport_configure_port_pin+0xa>
     cf4:	40 ff       	sbrs	r20, 0
     cf6:	07 c0       	rjmp	.+14     	; 0xd06 <ioport_configure_port_pin+0x40>
     cf8:	41 ff       	sbrs	r20, 1
     cfa:	02 c0       	rjmp	.+4      	; 0xd00 <ioport_configure_port_pin+0x3a>
     cfc:	65 83       	std	Z+5, r22	; 0x05
     cfe:	01 c0       	rjmp	.+2      	; 0xd02 <ioport_configure_port_pin+0x3c>
     d00:	66 83       	std	Z+6, r22	; 0x06
     d02:	61 83       	std	Z+1, r22	; 0x01
     d04:	08 95       	ret
     d06:	62 83       	std	Z+2, r22	; 0x02
     d08:	08 95       	ret

00000d0a <board_init>:
     d0a:	43 e0       	ldi	r20, 0x03	; 3
     d0c:	50 e0       	ldi	r21, 0x00	; 0
     d0e:	68 e0       	ldi	r22, 0x08	; 8
     d10:	80 ec       	ldi	r24, 0xC0	; 192
     d12:	97 e0       	ldi	r25, 0x07	; 7
     d14:	d8 df       	rcall	.-80     	; 0xcc6 <ioport_configure_port_pin>
     d16:	40 e0       	ldi	r20, 0x00	; 0
     d18:	58 e1       	ldi	r21, 0x18	; 24
     d1a:	64 e0       	ldi	r22, 0x04	; 4
     d1c:	80 ec       	ldi	r24, 0xC0	; 192
     d1e:	97 e0       	ldi	r25, 0x07	; 7
     d20:	d2 cf       	rjmp	.-92     	; 0xcc6 <ioport_configure_port_pin>

00000d22 <twi_master_setup.constprop.0>:
     d22:	cf 93       	push	r28
     d24:	df 93       	push	r29
     d26:	ec 01       	movw	r28, r24
     d28:	8b e9       	ldi	r24, 0x9B	; 155
     d2a:	90 e0       	ldi	r25, 0x00	; 0
     d2c:	a0 e0       	ldi	r26, 0x00	; 0
     d2e:	b0 e0       	ldi	r27, 0x00	; 0
     d30:	8c 83       	std	Y+4, r24	; 0x04
     d32:	9d 83       	std	Y+5, r25	; 0x05
     d34:	ae 83       	std	Y+6, r26	; 0x06
     d36:	bf 83       	std	Y+7, r27	; 0x07
     d38:	60 e4       	ldi	r22, 0x40	; 64
     d3a:	86 e0       	ldi	r24, 0x06	; 6
     d3c:	54 dd       	rcall	.-1368   	; 0x7e6 <sysclk_enable_module>
     d3e:	be 01       	movw	r22, r28
     d40:	80 eb       	ldi	r24, 0xB0	; 176
     d42:	94 e0       	ldi	r25, 0x04	; 4
     d44:	a2 dc       	rcall	.-1724   	; 0x68a <twi_master_init>
     d46:	08 2e       	mov	r0, r24
     d48:	00 0c       	add	r0, r0
     d4a:	99 0b       	sbc	r25, r25
     d4c:	df 91       	pop	r29
     d4e:	cf 91       	pop	r28
     d50:	08 95       	ret

00000d52 <init_i2c>:
     d52:	9f 92       	push	r9
     d54:	af 92       	push	r10
     d56:	bf 92       	push	r11
     d58:	cf 92       	push	r12
     d5a:	df 92       	push	r13
     d5c:	ef 92       	push	r14
     d5e:	ff 92       	push	r15
     d60:	0f 93       	push	r16
     d62:	1f 93       	push	r17
     d64:	cf 93       	push	r28
     d66:	df 93       	push	r29
     d68:	cd b7       	in	r28, 0x3d	; 61
     d6a:	de b7       	in	r29, 0x3e	; 62
     d6c:	c2 55       	subi	r28, 0x52	; 82
     d6e:	d1 09       	sbc	r29, r1
     d70:	cd bf       	out	0x3d, r28	; 61
     d72:	de bf       	out	0x3e, r29	; 62
     d74:	fe 01       	movw	r30, r28
     d76:	e8 5b       	subi	r30, 0xB8	; 184
     d78:	ff 4f       	sbci	r31, 0xFF	; 255
     d7a:	19 e0       	ldi	r17, 0x09	; 9
     d7c:	df 01       	movw	r26, r30
     d7e:	f1 2e       	mov	r15, r17
     d80:	1d 92       	st	X+, r1
     d82:	fa 94       	dec	r15
     d84:	e9 f7       	brne	.-6      	; 0xd80 <init_i2c+0x2e>
     d86:	80 ea       	ldi	r24, 0xA0	; 160
     d88:	c8 2e       	mov	r12, r24
     d8a:	86 e8       	ldi	r24, 0x86	; 134
     d8c:	d8 2e       	mov	r13, r24
     d8e:	ee 24       	eor	r14, r14
     d90:	e3 94       	inc	r14
     d92:	f1 2c       	mov	r15, r1
     d94:	c0 82       	st	Z, r12
     d96:	d1 82       	std	Z+1, r13	; 0x01
     d98:	e2 82       	std	Z+2, r14	; 0x02
     d9a:	f3 82       	std	Z+3, r15	; 0x03
     d9c:	98 e4       	ldi	r25, 0x48	; 72
     d9e:	b9 2e       	mov	r11, r25
     da0:	b0 86       	std	Z+8, r11	; 0x08
     da2:	cf 01       	movw	r24, r30
     da4:	be df       	rcall	.-132    	; 0xd22 <twi_master_setup.constprop.0>
     da6:	ce 01       	movw	r24, r28
     da8:	cf 96       	adiw	r24, 0x3f	; 63
     daa:	dc 01       	movw	r26, r24
     dac:	e1 2f       	mov	r30, r17
     dae:	1d 92       	st	X+, r1
     db0:	ea 95       	dec	r30
     db2:	e9 f7       	brne	.-6      	; 0xdae <init_i2c+0x5c>
     db4:	dc 01       	movw	r26, r24
     db6:	cd 92       	st	X+, r12
     db8:	dd 92       	st	X+, r13
     dba:	ed 92       	st	X+, r14
     dbc:	fc 92       	st	X, r15
     dbe:	13 97       	sbiw	r26, 0x03	; 3
     dc0:	29 e4       	ldi	r18, 0x49	; 73
     dc2:	92 2e       	mov	r9, r18
     dc4:	28 96       	adiw	r28, 0x08	; 8
     dc6:	9f ae       	std	Y+63, r9	; 0x3f
     dc8:	28 97       	sbiw	r28, 0x08	; 8
     dca:	ab df       	rcall	.-170    	; 0xd22 <twi_master_setup.constprop.0>
     dcc:	ce 01       	movw	r24, r28
     dce:	c6 96       	adiw	r24, 0x36	; 54
     dd0:	fc 01       	movw	r30, r24
     dd2:	21 2f       	mov	r18, r17
     dd4:	11 92       	st	Z+, r1
     dd6:	2a 95       	dec	r18
     dd8:	e9 f7       	brne	.-6      	; 0xdd4 <init_i2c+0x82>
     dda:	ce aa       	std	Y+54, r12	; 0x36
     ddc:	df aa       	std	Y+55, r13	; 0x37
     dde:	e8 ae       	std	Y+56, r14	; 0x38
     de0:	f9 ae       	std	Y+57, r15	; 0x39
     de2:	0a e4       	ldi	r16, 0x4A	; 74
     de4:	0e af       	std	Y+62, r16	; 0x3e
     de6:	9d df       	rcall	.-198    	; 0xd22 <twi_master_setup.constprop.0>
     de8:	ce 01       	movw	r24, r28
     dea:	8d 96       	adiw	r24, 0x2d	; 45
     dec:	dc 01       	movw	r26, r24
     dee:	1d 92       	st	X+, r1
     df0:	1a 95       	dec	r17
     df2:	e9 f7       	brne	.-6      	; 0xdee <init_i2c+0x9c>
     df4:	cd a6       	std	Y+45, r12	; 0x2d
     df6:	de a6       	std	Y+46, r13	; 0x2e
     df8:	ef a6       	std	Y+47, r14	; 0x2f
     dfa:	f8 aa       	std	Y+48, r15	; 0x30
     dfc:	1b e4       	ldi	r17, 0x4B	; 75
     dfe:	1d ab       	std	Y+53, r17	; 0x35
     e00:	90 df       	rcall	.-224    	; 0xd22 <twi_master_setup.constprop.0>
     e02:	fe 01       	movw	r30, r28
     e04:	ef 5a       	subi	r30, 0xAF	; 175
     e06:	ff 4f       	sbci	r31, 0xFF	; 255
     e08:	82 e4       	ldi	r24, 0x42	; 66
     e0a:	80 83       	st	Z, r24
     e0c:	83 ee       	ldi	r24, 0xE3	; 227
     e0e:	81 83       	std	Z+1, r24	; 0x01
     e10:	be 01       	movw	r22, r28
     e12:	6e 5d       	subi	r22, 0xDE	; 222
     e14:	7f 4f       	sbci	r23, 0xFF	; 255
     e16:	5b e0       	ldi	r21, 0x0B	; 11
     e18:	db 01       	movw	r26, r22
     e1a:	f5 2e       	mov	r15, r21
     e1c:	1d 92       	st	X+, r1
     e1e:	fa 94       	dec	r15
     e20:	e9 f7       	brne	.-6      	; 0xe1c <init_i2c+0xca>
     e22:	41 e0       	ldi	r20, 0x01	; 1
     e24:	4b a3       	std	Y+35, r20	; 0x23
     e26:	21 e0       	ldi	r18, 0x01	; 1
     e28:	30 e0       	ldi	r19, 0x00	; 0
     e2a:	2e a3       	std	Y+38, r18	; 0x26
     e2c:	3f a3       	std	Y+39, r19	; 0x27
     e2e:	ba a2       	std	Y+34, r11	; 0x22
     e30:	e8 a7       	std	Y+40, r30	; 0x28
     e32:	f9 a7       	std	Y+41, r31	; 0x29
     e34:	82 e0       	ldi	r24, 0x02	; 2
     e36:	90 e0       	ldi	r25, 0x00	; 0
     e38:	8a a7       	std	Y+42, r24	; 0x2a
     e3a:	9b a7       	std	Y+43, r25	; 0x2b
     e3c:	5e 01       	movw	r10, r28
     e3e:	a7 e1       	ldi	r26, 0x17	; 23
     e40:	aa 0e       	add	r10, r26
     e42:	b1 1c       	adc	r11, r1
     e44:	d5 01       	movw	r26, r10
     e46:	f5 2e       	mov	r15, r21
     e48:	1d 92       	st	X+, r1
     e4a:	fa 94       	dec	r15
     e4c:	e9 f7       	brne	.-6      	; 0xe48 <init_i2c+0xf6>
     e4e:	48 8f       	std	Y+24, r20	; 0x18
     e50:	2b 8f       	std	Y+27, r18	; 0x1b
     e52:	3c 8f       	std	Y+28, r19	; 0x1c
     e54:	9f 8a       	std	Y+23, r9	; 0x17
     e56:	ed 8f       	std	Y+29, r30	; 0x1d
     e58:	fe 8f       	std	Y+30, r31	; 0x1e
     e5a:	8f 8f       	std	Y+31, r24	; 0x1f
     e5c:	98 a3       	std	Y+32, r25	; 0x20
     e5e:	6e 01       	movw	r12, r28
     e60:	ac e0       	ldi	r26, 0x0C	; 12
     e62:	ca 0e       	add	r12, r26
     e64:	d1 1c       	adc	r13, r1
     e66:	d6 01       	movw	r26, r12
     e68:	f5 2e       	mov	r15, r21
     e6a:	1d 92       	st	X+, r1
     e6c:	fa 94       	dec	r15
     e6e:	e9 f7       	brne	.-6      	; 0xe6a <init_i2c+0x118>
     e70:	4d 87       	std	Y+13, r20	; 0x0d
     e72:	28 8b       	std	Y+16, r18	; 0x10
     e74:	39 8b       	std	Y+17, r19	; 0x11
     e76:	0c 87       	std	Y+12, r16	; 0x0c
     e78:	ea 8b       	std	Y+18, r30	; 0x12
     e7a:	fb 8b       	std	Y+19, r31	; 0x13
     e7c:	8c 8b       	std	Y+20, r24	; 0x14
     e7e:	9d 8b       	std	Y+21, r25	; 0x15
     e80:	de 01       	movw	r26, r28
     e82:	11 96       	adiw	r26, 0x01	; 1
     e84:	7d 01       	movw	r14, r26
     e86:	1d 92       	st	X+, r1
     e88:	5a 95       	dec	r21
     e8a:	e9 f7       	brne	.-6      	; 0xe86 <init_i2c+0x134>
     e8c:	4a 83       	std	Y+2, r20	; 0x02
     e8e:	2d 83       	std	Y+5, r18	; 0x05
     e90:	3e 83       	std	Y+6, r19	; 0x06
     e92:	19 83       	std	Y+1, r17	; 0x01
     e94:	ef 83       	std	Y+7, r30	; 0x07
     e96:	f8 87       	std	Y+8, r31	; 0x08
     e98:	89 87       	std	Y+9, r24	; 0x09
     e9a:	9a 87       	std	Y+10, r25	; 0x0a
     e9c:	40 e0       	ldi	r20, 0x00	; 0
     e9e:	80 eb       	ldi	r24, 0xB0	; 176
     ea0:	94 e0       	ldi	r25, 0x04	; 4
     ea2:	08 dc       	rcall	.-2032   	; 0x6b4 <twi_master_transfer>
     ea4:	11 e0       	ldi	r17, 0x01	; 1
     ea6:	81 11       	cpse	r24, r1
     ea8:	01 c0       	rjmp	.+2      	; 0xeac <init_i2c+0x15a>
     eaa:	10 e0       	ldi	r17, 0x00	; 0
     eac:	40 e0       	ldi	r20, 0x00	; 0
     eae:	b5 01       	movw	r22, r10
     eb0:	80 eb       	ldi	r24, 0xB0	; 176
     eb2:	94 e0       	ldi	r25, 0x04	; 4
     eb4:	ff db       	rcall	.-2050   	; 0x6b4 <twi_master_transfer>
     eb6:	81 11       	cpse	r24, r1
     eb8:	12 60       	ori	r17, 0x02	; 2
     eba:	40 e0       	ldi	r20, 0x00	; 0
     ebc:	b6 01       	movw	r22, r12
     ebe:	80 eb       	ldi	r24, 0xB0	; 176
     ec0:	94 e0       	ldi	r25, 0x04	; 4
     ec2:	f8 db       	rcall	.-2064   	; 0x6b4 <twi_master_transfer>
     ec4:	81 11       	cpse	r24, r1
     ec6:	14 60       	ori	r17, 0x04	; 4
     ec8:	40 e0       	ldi	r20, 0x00	; 0
     eca:	b7 01       	movw	r22, r14
     ecc:	80 eb       	ldi	r24, 0xB0	; 176
     ece:	94 e0       	ldi	r25, 0x04	; 4
     ed0:	f1 db       	rcall	.-2078   	; 0x6b4 <twi_master_transfer>
     ed2:	81 11       	cpse	r24, r1
     ed4:	18 60       	ori	r17, 0x08	; 8
     ed6:	81 2f       	mov	r24, r17
     ed8:	ce 5a       	subi	r28, 0xAE	; 174
     eda:	df 4f       	sbci	r29, 0xFF	; 255
     edc:	cd bf       	out	0x3d, r28	; 61
     ede:	de bf       	out	0x3e, r29	; 62
     ee0:	df 91       	pop	r29
     ee2:	cf 91       	pop	r28
     ee4:	1f 91       	pop	r17
     ee6:	0f 91       	pop	r16
     ee8:	ff 90       	pop	r15
     eea:	ef 90       	pop	r14
     eec:	df 90       	pop	r13
     eee:	cf 90       	pop	r12
     ef0:	bf 90       	pop	r11
     ef2:	af 90       	pop	r10
     ef4:	9f 90       	pop	r9
     ef6:	08 95       	ret

00000ef8 <main>:
     ef8:	cf 93       	push	r28
     efa:	df 93       	push	r29
     efc:	cd b7       	in	r28, 0x3d	; 61
     efe:	de b7       	in	r29, 0x3e	; 62
     f00:	2d 97       	sbiw	r28, 0x0d	; 13
     f02:	cd bf       	out	0x3d, r28	; 61
     f04:	de bf       	out	0x3e, r29	; 62
     f06:	01 df       	rcall	.-510    	; 0xd0a <board_init>
     f08:	37 dc       	rcall	.-1938   	; 0x778 <sysclk_init>
     f0a:	ba dc       	rcall	.-1676   	; 0x880 <rtc_init>
     f0c:	ff dd       	rcall	.-1026   	; 0xb0c <init_spi_to_bbb>
     f0e:	21 df       	rcall	.-446    	; 0xd52 <init_i2c>
     f10:	80 93 35 20 	sts	0x2035, r24	; 0x802035 <sensor_status>
     f14:	78 94       	sei
     f16:	81 e0       	ldi	r24, 0x01	; 1
     f18:	80 93 36 20 	sts	0x2036, r24	; 0x802036 <state>
     f1c:	8b e0       	ldi	r24, 0x0B	; 11
     f1e:	f8 2e       	mov	r15, r24
     f20:	8e 01       	movw	r16, r28
     f22:	0f 5f       	subi	r16, 0xFF	; 255
     f24:	1f 4f       	sbci	r17, 0xFF	; 255
     f26:	cc 24       	eor	r12, r12
     f28:	c3 94       	inc	r12
     f2a:	d1 2c       	mov	r13, r1
     f2c:	28 e4       	ldi	r18, 0x48	; 72
     f2e:	e2 2e       	mov	r14, r18
     f30:	5e 01       	movw	r10, r28
     f32:	8c e0       	ldi	r24, 0x0C	; 12
     f34:	a8 0e       	add	r10, r24
     f36:	b1 1c       	adc	r11, r1
     f38:	32 e0       	ldi	r19, 0x02	; 2
     f3a:	83 2e       	mov	r8, r19
     f3c:	91 2c       	mov	r9, r1
     f3e:	49 e4       	ldi	r20, 0x49	; 73
     f40:	74 2e       	mov	r7, r20
     f42:	5a e4       	ldi	r21, 0x4A	; 74
     f44:	65 2e       	mov	r6, r21
     f46:	6b e4       	ldi	r22, 0x4B	; 75
     f48:	56 2e       	mov	r5, r22
     f4a:	fd dd       	rcall	.-1030   	; 0xb46 <handle_spi_to_bbb>
     f4c:	80 91 33 20 	lds	r24, 0x2033	; 0x802033 <spi_transfer>
     f50:	81 11       	cpse	r24, r1
     f52:	fb cf       	rjmp	.-10     	; 0xf4a <main+0x52>
     f54:	f8 01       	movw	r30, r16
     f56:	8f 2d       	mov	r24, r15
     f58:	11 92       	st	Z+, r1
     f5a:	8a 95       	dec	r24
     f5c:	e9 f7       	brne	.-6      	; 0xf58 <main+0x60>
     f5e:	cd 82       	std	Y+5, r12	; 0x05
     f60:	de 82       	std	Y+6, r13	; 0x06
     f62:	e9 82       	std	Y+1, r14	; 0x01
     f64:	af 82       	std	Y+7, r10	; 0x07
     f66:	b8 86       	std	Y+8, r11	; 0x08
     f68:	89 86       	std	Y+9, r8	; 0x09
     f6a:	9a 86       	std	Y+10, r9	; 0x0a
     f6c:	54 dc       	rcall	.-1880   	; 0x816 <rtc_get_time>
     f6e:	60 93 2f 20 	sts	0x202F, r22	; 0x80202f <time1>
     f72:	70 93 30 20 	sts	0x2030, r23	; 0x802030 <time1+0x1>
     f76:	80 93 31 20 	sts	0x2031, r24	; 0x802031 <time1+0x2>
     f7a:	90 93 32 20 	sts	0x2032, r25	; 0x802032 <time1+0x3>
     f7e:	41 e0       	ldi	r20, 0x01	; 1
     f80:	b8 01       	movw	r22, r16
     f82:	80 eb       	ldi	r24, 0xB0	; 176
     f84:	94 e0       	ldi	r25, 0x04	; 4
     f86:	96 db       	rcall	.-2260   	; 0x6b4 <twi_master_transfer>
     f88:	81 11       	cpse	r24, r1
     f8a:	06 c0       	rjmp	.+12     	; 0xf98 <main+0xa0>
     f8c:	8d 85       	ldd	r24, Y+13	; 0x0d
     f8e:	80 93 08 20 	sts	0x2008, r24	; 0x802008 <sensor_data>
     f92:	8c 85       	ldd	r24, Y+12	; 0x0c
     f94:	80 93 09 20 	sts	0x2009, r24	; 0x802009 <sensor_data+0x1>
     f98:	80 91 34 20 	lds	r24, 0x2034	; 0x802034 <spi_isr>
     f9c:	81 11       	cpse	r24, r1
     f9e:	d5 cf       	rjmp	.-86     	; 0xf4a <main+0x52>
     fa0:	79 82       	std	Y+1, r7	; 0x01
     fa2:	41 e0       	ldi	r20, 0x01	; 1
     fa4:	b8 01       	movw	r22, r16
     fa6:	80 eb       	ldi	r24, 0xB0	; 176
     fa8:	94 e0       	ldi	r25, 0x04	; 4
     faa:	84 db       	rcall	.-2296   	; 0x6b4 <twi_master_transfer>
     fac:	81 11       	cpse	r24, r1
     fae:	06 c0       	rjmp	.+12     	; 0xfbc <main+0xc4>
     fb0:	8d 85       	ldd	r24, Y+13	; 0x0d
     fb2:	80 93 0a 20 	sts	0x200A, r24	; 0x80200a <sensor_data+0x2>
     fb6:	8c 85       	ldd	r24, Y+12	; 0x0c
     fb8:	80 93 0b 20 	sts	0x200B, r24	; 0x80200b <sensor_data+0x3>
     fbc:	80 91 34 20 	lds	r24, 0x2034	; 0x802034 <spi_isr>
     fc0:	81 11       	cpse	r24, r1
     fc2:	c3 cf       	rjmp	.-122    	; 0xf4a <main+0x52>
     fc4:	69 82       	std	Y+1, r6	; 0x01
     fc6:	41 e0       	ldi	r20, 0x01	; 1
     fc8:	b8 01       	movw	r22, r16
     fca:	80 eb       	ldi	r24, 0xB0	; 176
     fcc:	94 e0       	ldi	r25, 0x04	; 4
     fce:	72 db       	rcall	.-2332   	; 0x6b4 <twi_master_transfer>
     fd0:	81 11       	cpse	r24, r1
     fd2:	06 c0       	rjmp	.+12     	; 0xfe0 <main+0xe8>
     fd4:	8d 85       	ldd	r24, Y+13	; 0x0d
     fd6:	80 93 0c 20 	sts	0x200C, r24	; 0x80200c <sensor_data+0x4>
     fda:	8c 85       	ldd	r24, Y+12	; 0x0c
     fdc:	80 93 0d 20 	sts	0x200D, r24	; 0x80200d <sensor_data+0x5>
     fe0:	80 91 34 20 	lds	r24, 0x2034	; 0x802034 <spi_isr>
     fe4:	81 11       	cpse	r24, r1
     fe6:	b1 cf       	rjmp	.-158    	; 0xf4a <main+0x52>
     fe8:	59 82       	std	Y+1, r5	; 0x01
     fea:	41 e0       	ldi	r20, 0x01	; 1
     fec:	b8 01       	movw	r22, r16
     fee:	80 eb       	ldi	r24, 0xB0	; 176
     ff0:	94 e0       	ldi	r25, 0x04	; 4
     ff2:	60 db       	rcall	.-2368   	; 0x6b4 <twi_master_transfer>
     ff4:	81 11       	cpse	r24, r1
     ff6:	06 c0       	rjmp	.+12     	; 0x1004 <main+0x10c>
     ff8:	8d 85       	ldd	r24, Y+13	; 0x0d
     ffa:	80 93 0e 20 	sts	0x200E, r24	; 0x80200e <sensor_data+0x6>
     ffe:	8c 85       	ldd	r24, Y+12	; 0x0c
    1000:	80 93 0f 20 	sts	0x200F, r24	; 0x80200f <sensor_data+0x7>
    1004:	80 91 34 20 	lds	r24, 0x2034	; 0x802034 <spi_isr>
    1008:	81 11       	cpse	r24, r1
    100a:	9f cf       	rjmp	.-194    	; 0xf4a <main+0x52>
    100c:	04 dc       	rcall	.-2040   	; 0x816 <rtc_get_time>
    100e:	60 93 04 20 	sts	0x2004, r22	; 0x802004 <time2>
    1012:	70 93 05 20 	sts	0x2005, r23	; 0x802005 <time2+0x1>
    1016:	80 93 06 20 	sts	0x2006, r24	; 0x802006 <time2+0x2>
    101a:	90 93 07 20 	sts	0x2007, r25	; 0x802007 <time2+0x3>
    101e:	20 91 2f 20 	lds	r18, 0x202F	; 0x80202f <time1>
    1022:	30 91 30 20 	lds	r19, 0x2030	; 0x802030 <time1+0x1>
    1026:	40 91 31 20 	lds	r20, 0x2031	; 0x802031 <time1+0x2>
    102a:	50 91 32 20 	lds	r21, 0x2032	; 0x802032 <time1+0x3>
    102e:	dc 01       	movw	r26, r24
    1030:	cb 01       	movw	r24, r22
    1032:	82 1b       	sub	r24, r18
    1034:	93 0b       	sbc	r25, r19
    1036:	a4 0b       	sbc	r26, r20
    1038:	b5 0b       	sbc	r27, r21
    103a:	80 93 00 20 	sts	0x2000, r24	; 0x802000 <__data_start>
    103e:	90 93 01 20 	sts	0x2001, r25	; 0x802001 <__data_start+0x1>
    1042:	a0 93 02 20 	sts	0x2002, r26	; 0x802002 <__data_start+0x2>
    1046:	b0 93 03 20 	sts	0x2003, r27	; 0x802003 <__data_start+0x3>
    104a:	80 93 10 20 	sts	0x2010, r24	; 0x802010 <sensor_data+0x8>
    104e:	90 93 11 20 	sts	0x2011, r25	; 0x802011 <sensor_data+0x9>
    1052:	a0 93 12 20 	sts	0x2012, r26	; 0x802012 <sensor_data+0xa>
    1056:	b0 93 13 20 	sts	0x2013, r27	; 0x802013 <sensor_data+0xb>
    105a:	77 cf       	rjmp	.-274    	; 0xf4a <main+0x52>

0000105c <__udivmodqi4>:
    105c:	99 1b       	sub	r25, r25
    105e:	79 e0       	ldi	r23, 0x09	; 9
    1060:	04 c0       	rjmp	.+8      	; 0x106a <__udivmodqi4_ep>

00001062 <__udivmodqi4_loop>:
    1062:	99 1f       	adc	r25, r25
    1064:	96 17       	cp	r25, r22
    1066:	08 f0       	brcs	.+2      	; 0x106a <__udivmodqi4_ep>
    1068:	96 1b       	sub	r25, r22

0000106a <__udivmodqi4_ep>:
    106a:	88 1f       	adc	r24, r24
    106c:	7a 95       	dec	r23
    106e:	c9 f7       	brne	.-14     	; 0x1062 <__udivmodqi4_loop>
    1070:	80 95       	com	r24
    1072:	08 95       	ret

00001074 <_exit>:
    1074:	f8 94       	cli

00001076 <__stop_program>:
    1076:	ff cf       	rjmp	.-2      	; 0x1076 <__stop_program>
